
BlinkyTest.elf:     file format elf32-littlearm

Sections:
Idx Name          Size      VMA       LMA       File off  Algn
  0 .isr_vector   000001ac  08000000  08000000  00010000  2**0
                  CONTENTS, ALLOC, LOAD, READONLY, DATA
  1 .text         000014c0  080001ac  080001ac  000101ac  2**2
                  CONTENTS, ALLOC, LOAD, READONLY, CODE
  2 .rodata       00000010  0800166c  0800166c  0001166c  2**2
                  CONTENTS, ALLOC, LOAD, READONLY, DATA
  3 .ARM.extab    00000000  0800167c  0800167c  00020010  2**0
                  CONTENTS
  4 .ARM          00000008  0800167c  0800167c  0001167c  2**2
                  CONTENTS, ALLOC, LOAD, READONLY, DATA
  5 .preinit_array 00000000  08001684  08001684  00020010  2**0
                  CONTENTS, ALLOC, LOAD, DATA
  6 .init_array   00000004  08001684  08001684  00011684  2**2
                  CONTENTS, ALLOC, LOAD, DATA
  7 .fini_array   00000004  08001688  08001688  00011688  2**2
                  CONTENTS, ALLOC, LOAD, DATA
  8 .data         00000010  20000000  0800168c  00020000  2**2
                  CONTENTS, ALLOC, LOAD, DATA
  9 .bss          00000048  20000010  0800169c  00020010  2**2
                  ALLOC
 10 ._user_heap_stack 00000600  20000058  0800169c  00020058  2**0
                  ALLOC
 11 .ARM.attributes 00000030  00000000  00000000  00020010  2**0
                  CONTENTS, READONLY
 12 .debug_info   00004144  00000000  00000000  00020040  2**0
                  CONTENTS, READONLY, DEBUGGING
 13 .debug_abbrev 00000fc8  00000000  00000000  00024184  2**0
                  CONTENTS, READONLY, DEBUGGING
 14 .debug_aranges 000004b8  00000000  00000000  00025150  2**3
                  CONTENTS, READONLY, DEBUGGING
 15 .debug_ranges 00000400  00000000  00000000  00025608  2**3
                  CONTENTS, READONLY, DEBUGGING
 16 .debug_macro  0002149d  00000000  00000000  00025a08  2**0
                  CONTENTS, READONLY, DEBUGGING
 17 .debug_line   00004a4f  00000000  00000000  00046ea5  2**0
                  CONTENTS, READONLY, DEBUGGING
 18 .debug_str    000ca22f  00000000  00000000  0004b8f4  2**0
                  CONTENTS, READONLY, DEBUGGING
 19 .comment      0000007b  00000000  00000000  00115b23  2**0
                  CONTENTS, READONLY
 20 .debug_frame  00001080  00000000  00000000  00115ba0  2**2
                  CONTENTS, READONLY, DEBUGGING

Disassembly of section .text:

080001ac <__do_global_dtors_aux>:
 80001ac:	b510      	push	{r4, lr}
 80001ae:	4c05      	ldr	r4, [pc, #20]	; (80001c4 <__do_global_dtors_aux+0x18>)
 80001b0:	7823      	ldrb	r3, [r4, #0]
 80001b2:	b933      	cbnz	r3, 80001c2 <__do_global_dtors_aux+0x16>
 80001b4:	4b04      	ldr	r3, [pc, #16]	; (80001c8 <__do_global_dtors_aux+0x1c>)
 80001b6:	b113      	cbz	r3, 80001be <__do_global_dtors_aux+0x12>
 80001b8:	4804      	ldr	r0, [pc, #16]	; (80001cc <__do_global_dtors_aux+0x20>)
 80001ba:	f3af 8000 	nop.w
 80001be:	2301      	movs	r3, #1
 80001c0:	7023      	strb	r3, [r4, #0]
 80001c2:	bd10      	pop	{r4, pc}
 80001c4:	20000010 	.word	0x20000010
 80001c8:	00000000 	.word	0x00000000
 80001cc:	08001654 	.word	0x08001654

080001d0 <frame_dummy>:
 80001d0:	b508      	push	{r3, lr}
 80001d2:	4b03      	ldr	r3, [pc, #12]	; (80001e0 <frame_dummy+0x10>)
 80001d4:	b11b      	cbz	r3, 80001de <frame_dummy+0xe>
 80001d6:	4903      	ldr	r1, [pc, #12]	; (80001e4 <frame_dummy+0x14>)
 80001d8:	4803      	ldr	r0, [pc, #12]	; (80001e8 <frame_dummy+0x18>)
 80001da:	f3af 8000 	nop.w
 80001de:	bd08      	pop	{r3, pc}
 80001e0:	00000000 	.word	0x00000000
 80001e4:	20000014 	.word	0x20000014
 80001e8:	08001654 	.word	0x08001654

080001ec <__aeabi_uldivmod>:
 80001ec:	b953      	cbnz	r3, 8000204 <__aeabi_uldivmod+0x18>
 80001ee:	b94a      	cbnz	r2, 8000204 <__aeabi_uldivmod+0x18>
 80001f0:	2900      	cmp	r1, #0
 80001f2:	bf08      	it	eq
 80001f4:	2800      	cmpeq	r0, #0
 80001f6:	bf1c      	itt	ne
 80001f8:	f04f 31ff 	movne.w	r1, #4294967295
 80001fc:	f04f 30ff 	movne.w	r0, #4294967295
 8000200:	f000 b972 	b.w	80004e8 <__aeabi_idiv0>
 8000204:	f1ad 0c08 	sub.w	ip, sp, #8
 8000208:	e96d ce04 	strd	ip, lr, [sp, #-16]!
 800020c:	f000 f806 	bl	800021c <__udivmoddi4>
 8000210:	f8dd e004 	ldr.w	lr, [sp, #4]
 8000214:	e9dd 2302 	ldrd	r2, r3, [sp, #8]
 8000218:	b004      	add	sp, #16
 800021a:	4770      	bx	lr

0800021c <__udivmoddi4>:
 800021c:	e92d 47f0 	stmdb	sp!, {r4, r5, r6, r7, r8, r9, sl, lr}
 8000220:	9e08      	ldr	r6, [sp, #32]
 8000222:	4604      	mov	r4, r0
 8000224:	4688      	mov	r8, r1
 8000226:	2b00      	cmp	r3, #0
 8000228:	d14b      	bne.n	80002c2 <__udivmoddi4+0xa6>
 800022a:	428a      	cmp	r2, r1
 800022c:	4615      	mov	r5, r2
 800022e:	d967      	bls.n	8000300 <__udivmoddi4+0xe4>
 8000230:	fab2 f282 	clz	r2, r2
 8000234:	b14a      	cbz	r2, 800024a <__udivmoddi4+0x2e>
 8000236:	f1c2 0720 	rsb	r7, r2, #32
 800023a:	fa01 f302 	lsl.w	r3, r1, r2
 800023e:	fa20 f707 	lsr.w	r7, r0, r7
 8000242:	4095      	lsls	r5, r2
 8000244:	ea47 0803 	orr.w	r8, r7, r3
 8000248:	4094      	lsls	r4, r2
 800024a:	ea4f 4e15 	mov.w	lr, r5, lsr #16
 800024e:	0c23      	lsrs	r3, r4, #16
 8000250:	fbb8 f7fe 	udiv	r7, r8, lr
 8000254:	fa1f fc85 	uxth.w	ip, r5
 8000258:	fb0e 8817 	mls	r8, lr, r7, r8
 800025c:	ea43 4308 	orr.w	r3, r3, r8, lsl #16
 8000260:	fb07 f10c 	mul.w	r1, r7, ip
 8000264:	4299      	cmp	r1, r3
 8000266:	d909      	bls.n	800027c <__udivmoddi4+0x60>
 8000268:	18eb      	adds	r3, r5, r3
 800026a:	f107 30ff 	add.w	r0, r7, #4294967295
 800026e:	f080 811b 	bcs.w	80004a8 <__udivmoddi4+0x28c>
 8000272:	4299      	cmp	r1, r3
 8000274:	f240 8118 	bls.w	80004a8 <__udivmoddi4+0x28c>
 8000278:	3f02      	subs	r7, #2
 800027a:	442b      	add	r3, r5
 800027c:	1a5b      	subs	r3, r3, r1
 800027e:	b2a4      	uxth	r4, r4
 8000280:	fbb3 f0fe 	udiv	r0, r3, lr
 8000284:	fb0e 3310 	mls	r3, lr, r0, r3
 8000288:	ea44 4403 	orr.w	r4, r4, r3, lsl #16
 800028c:	fb00 fc0c 	mul.w	ip, r0, ip
 8000290:	45a4      	cmp	ip, r4
 8000292:	d909      	bls.n	80002a8 <__udivmoddi4+0x8c>
 8000294:	192c      	adds	r4, r5, r4
 8000296:	f100 33ff 	add.w	r3, r0, #4294967295
 800029a:	f080 8107 	bcs.w	80004ac <__udivmoddi4+0x290>
 800029e:	45a4      	cmp	ip, r4
 80002a0:	f240 8104 	bls.w	80004ac <__udivmoddi4+0x290>
 80002a4:	3802      	subs	r0, #2
 80002a6:	442c      	add	r4, r5
 80002a8:	ea40 4007 	orr.w	r0, r0, r7, lsl #16
 80002ac:	eba4 040c 	sub.w	r4, r4, ip
 80002b0:	2700      	movs	r7, #0
 80002b2:	b11e      	cbz	r6, 80002bc <__udivmoddi4+0xa0>
 80002b4:	40d4      	lsrs	r4, r2
 80002b6:	2300      	movs	r3, #0
 80002b8:	e9c6 4300 	strd	r4, r3, [r6]
 80002bc:	4639      	mov	r1, r7
 80002be:	e8bd 87f0 	ldmia.w	sp!, {r4, r5, r6, r7, r8, r9, sl, pc}
 80002c2:	428b      	cmp	r3, r1
 80002c4:	d909      	bls.n	80002da <__udivmoddi4+0xbe>
 80002c6:	2e00      	cmp	r6, #0
 80002c8:	f000 80eb 	beq.w	80004a2 <__udivmoddi4+0x286>
 80002cc:	2700      	movs	r7, #0
 80002ce:	e9c6 0100 	strd	r0, r1, [r6]
 80002d2:	4638      	mov	r0, r7
 80002d4:	4639      	mov	r1, r7
 80002d6:	e8bd 87f0 	ldmia.w	sp!, {r4, r5, r6, r7, r8, r9, sl, pc}
 80002da:	fab3 f783 	clz	r7, r3
 80002de:	2f00      	cmp	r7, #0
 80002e0:	d147      	bne.n	8000372 <__udivmoddi4+0x156>
 80002e2:	428b      	cmp	r3, r1
 80002e4:	d302      	bcc.n	80002ec <__udivmoddi4+0xd0>
 80002e6:	4282      	cmp	r2, r0
 80002e8:	f200 80fa 	bhi.w	80004e0 <__udivmoddi4+0x2c4>
 80002ec:	1a84      	subs	r4, r0, r2
 80002ee:	eb61 0303 	sbc.w	r3, r1, r3
 80002f2:	2001      	movs	r0, #1
 80002f4:	4698      	mov	r8, r3
 80002f6:	2e00      	cmp	r6, #0
 80002f8:	d0e0      	beq.n	80002bc <__udivmoddi4+0xa0>
 80002fa:	e9c6 4800 	strd	r4, r8, [r6]
 80002fe:	e7dd      	b.n	80002bc <__udivmoddi4+0xa0>
 8000300:	b902      	cbnz	r2, 8000304 <__udivmoddi4+0xe8>
 8000302:	deff      	udf	#255	; 0xff
 8000304:	fab2 f282 	clz	r2, r2
 8000308:	2a00      	cmp	r2, #0
 800030a:	f040 808f 	bne.w	800042c <__udivmoddi4+0x210>
 800030e:	1b49      	subs	r1, r1, r5
 8000310:	ea4f 4e15 	mov.w	lr, r5, lsr #16
 8000314:	fa1f f885 	uxth.w	r8, r5
 8000318:	2701      	movs	r7, #1
 800031a:	fbb1 fcfe 	udiv	ip, r1, lr
 800031e:	0c23      	lsrs	r3, r4, #16
 8000320:	fb0e 111c 	mls	r1, lr, ip, r1
 8000324:	ea43 4301 	orr.w	r3, r3, r1, lsl #16
 8000328:	fb08 f10c 	mul.w	r1, r8, ip
 800032c:	4299      	cmp	r1, r3
 800032e:	d907      	bls.n	8000340 <__udivmoddi4+0x124>
 8000330:	18eb      	adds	r3, r5, r3
 8000332:	f10c 30ff 	add.w	r0, ip, #4294967295
 8000336:	d202      	bcs.n	800033e <__udivmoddi4+0x122>
 8000338:	4299      	cmp	r1, r3
 800033a:	f200 80cd 	bhi.w	80004d8 <__udivmoddi4+0x2bc>
 800033e:	4684      	mov	ip, r0
 8000340:	1a59      	subs	r1, r3, r1
 8000342:	b2a3      	uxth	r3, r4
 8000344:	fbb1 f0fe 	udiv	r0, r1, lr
 8000348:	fb0e 1410 	mls	r4, lr, r0, r1
 800034c:	ea43 4404 	orr.w	r4, r3, r4, lsl #16
 8000350:	fb08 f800 	mul.w	r8, r8, r0
 8000354:	45a0      	cmp	r8, r4
 8000356:	d907      	bls.n	8000368 <__udivmoddi4+0x14c>
 8000358:	192c      	adds	r4, r5, r4
 800035a:	f100 33ff 	add.w	r3, r0, #4294967295
 800035e:	d202      	bcs.n	8000366 <__udivmoddi4+0x14a>
 8000360:	45a0      	cmp	r8, r4
 8000362:	f200 80b6 	bhi.w	80004d2 <__udivmoddi4+0x2b6>
 8000366:	4618      	mov	r0, r3
 8000368:	eba4 0408 	sub.w	r4, r4, r8
 800036c:	ea40 400c 	orr.w	r0, r0, ip, lsl #16
 8000370:	e79f      	b.n	80002b2 <__udivmoddi4+0x96>
 8000372:	f1c7 0c20 	rsb	ip, r7, #32
 8000376:	40bb      	lsls	r3, r7
 8000378:	fa22 fe0c 	lsr.w	lr, r2, ip
 800037c:	ea4e 0e03 	orr.w	lr, lr, r3
 8000380:	fa01 f407 	lsl.w	r4, r1, r7
 8000384:	fa20 f50c 	lsr.w	r5, r0, ip
 8000388:	fa21 f30c 	lsr.w	r3, r1, ip
 800038c:	ea4f 481e 	mov.w	r8, lr, lsr #16
 8000390:	4325      	orrs	r5, r4
 8000392:	fbb3 f9f8 	udiv	r9, r3, r8
 8000396:	0c2c      	lsrs	r4, r5, #16
 8000398:	fb08 3319 	mls	r3, r8, r9, r3
 800039c:	fa1f fa8e 	uxth.w	sl, lr
 80003a0:	ea44 4303 	orr.w	r3, r4, r3, lsl #16
 80003a4:	fb09 f40a 	mul.w	r4, r9, sl
 80003a8:	429c      	cmp	r4, r3
 80003aa:	fa02 f207 	lsl.w	r2, r2, r7
 80003ae:	fa00 f107 	lsl.w	r1, r0, r7
 80003b2:	d90b      	bls.n	80003cc <__udivmoddi4+0x1b0>
 80003b4:	eb1e 0303 	adds.w	r3, lr, r3
 80003b8:	f109 30ff 	add.w	r0, r9, #4294967295
 80003bc:	f080 8087 	bcs.w	80004ce <__udivmoddi4+0x2b2>
 80003c0:	429c      	cmp	r4, r3
 80003c2:	f240 8084 	bls.w	80004ce <__udivmoddi4+0x2b2>
 80003c6:	f1a9 0902 	sub.w	r9, r9, #2
 80003ca:	4473      	add	r3, lr
 80003cc:	1b1b      	subs	r3, r3, r4
 80003ce:	b2ad      	uxth	r5, r5
 80003d0:	fbb3 f0f8 	udiv	r0, r3, r8
 80003d4:	fb08 3310 	mls	r3, r8, r0, r3
 80003d8:	ea45 4403 	orr.w	r4, r5, r3, lsl #16
 80003dc:	fb00 fa0a 	mul.w	sl, r0, sl
 80003e0:	45a2      	cmp	sl, r4
 80003e2:	d908      	bls.n	80003f6 <__udivmoddi4+0x1da>
 80003e4:	eb1e 0404 	adds.w	r4, lr, r4
 80003e8:	f100 33ff 	add.w	r3, r0, #4294967295
 80003ec:	d26b      	bcs.n	80004c6 <__udivmoddi4+0x2aa>
 80003ee:	45a2      	cmp	sl, r4
 80003f0:	d969      	bls.n	80004c6 <__udivmoddi4+0x2aa>
 80003f2:	3802      	subs	r0, #2
 80003f4:	4474      	add	r4, lr
 80003f6:	ea40 4009 	orr.w	r0, r0, r9, lsl #16
 80003fa:	fba0 8902 	umull	r8, r9, r0, r2
 80003fe:	eba4 040a 	sub.w	r4, r4, sl
 8000402:	454c      	cmp	r4, r9
 8000404:	46c2      	mov	sl, r8
 8000406:	464b      	mov	r3, r9
 8000408:	d354      	bcc.n	80004b4 <__udivmoddi4+0x298>
 800040a:	d051      	beq.n	80004b0 <__udivmoddi4+0x294>
 800040c:	2e00      	cmp	r6, #0
 800040e:	d069      	beq.n	80004e4 <__udivmoddi4+0x2c8>
 8000410:	ebb1 050a 	subs.w	r5, r1, sl
 8000414:	eb64 0403 	sbc.w	r4, r4, r3
 8000418:	fa04 fc0c 	lsl.w	ip, r4, ip
 800041c:	40fd      	lsrs	r5, r7
 800041e:	40fc      	lsrs	r4, r7
 8000420:	ea4c 0505 	orr.w	r5, ip, r5
 8000424:	e9c6 5400 	strd	r5, r4, [r6]
 8000428:	2700      	movs	r7, #0
 800042a:	e747      	b.n	80002bc <__udivmoddi4+0xa0>
 800042c:	f1c2 0320 	rsb	r3, r2, #32
 8000430:	fa20 f703 	lsr.w	r7, r0, r3
 8000434:	4095      	lsls	r5, r2
 8000436:	fa01 f002 	lsl.w	r0, r1, r2
 800043a:	fa21 f303 	lsr.w	r3, r1, r3
 800043e:	ea4f 4e15 	mov.w	lr, r5, lsr #16
 8000442:	4338      	orrs	r0, r7
 8000444:	0c01      	lsrs	r1, r0, #16
 8000446:	fbb3 f7fe 	udiv	r7, r3, lr
 800044a:	fa1f f885 	uxth.w	r8, r5
 800044e:	fb0e 3317 	mls	r3, lr, r7, r3
 8000452:	ea41 4103 	orr.w	r1, r1, r3, lsl #16
 8000456:	fb07 f308 	mul.w	r3, r7, r8
 800045a:	428b      	cmp	r3, r1
 800045c:	fa04 f402 	lsl.w	r4, r4, r2
 8000460:	d907      	bls.n	8000472 <__udivmoddi4+0x256>
 8000462:	1869      	adds	r1, r5, r1
 8000464:	f107 3cff 	add.w	ip, r7, #4294967295
 8000468:	d22f      	bcs.n	80004ca <__udivmoddi4+0x2ae>
 800046a:	428b      	cmp	r3, r1
 800046c:	d92d      	bls.n	80004ca <__udivmoddi4+0x2ae>
 800046e:	3f02      	subs	r7, #2
 8000470:	4429      	add	r1, r5
 8000472:	1acb      	subs	r3, r1, r3
 8000474:	b281      	uxth	r1, r0
 8000476:	fbb3 f0fe 	udiv	r0, r3, lr
 800047a:	fb0e 3310 	mls	r3, lr, r0, r3
 800047e:	ea41 4103 	orr.w	r1, r1, r3, lsl #16
 8000482:	fb00 f308 	mul.w	r3, r0, r8
 8000486:	428b      	cmp	r3, r1
 8000488:	d907      	bls.n	800049a <__udivmoddi4+0x27e>
 800048a:	1869      	adds	r1, r5, r1
 800048c:	f100 3cff 	add.w	ip, r0, #4294967295
 8000490:	d217      	bcs.n	80004c2 <__udivmoddi4+0x2a6>
 8000492:	428b      	cmp	r3, r1
 8000494:	d915      	bls.n	80004c2 <__udivmoddi4+0x2a6>
 8000496:	3802      	subs	r0, #2
 8000498:	4429      	add	r1, r5
 800049a:	1ac9      	subs	r1, r1, r3
 800049c:	ea40 4707 	orr.w	r7, r0, r7, lsl #16
 80004a0:	e73b      	b.n	800031a <__udivmoddi4+0xfe>
 80004a2:	4637      	mov	r7, r6
 80004a4:	4630      	mov	r0, r6
 80004a6:	e709      	b.n	80002bc <__udivmoddi4+0xa0>
 80004a8:	4607      	mov	r7, r0
 80004aa:	e6e7      	b.n	800027c <__udivmoddi4+0x60>
 80004ac:	4618      	mov	r0, r3
 80004ae:	e6fb      	b.n	80002a8 <__udivmoddi4+0x8c>
 80004b0:	4541      	cmp	r1, r8
 80004b2:	d2ab      	bcs.n	800040c <__udivmoddi4+0x1f0>
 80004b4:	ebb8 0a02 	subs.w	sl, r8, r2
 80004b8:	eb69 020e 	sbc.w	r2, r9, lr
 80004bc:	3801      	subs	r0, #1
 80004be:	4613      	mov	r3, r2
 80004c0:	e7a4      	b.n	800040c <__udivmoddi4+0x1f0>
 80004c2:	4660      	mov	r0, ip
 80004c4:	e7e9      	b.n	800049a <__udivmoddi4+0x27e>
 80004c6:	4618      	mov	r0, r3
 80004c8:	e795      	b.n	80003f6 <__udivmoddi4+0x1da>
 80004ca:	4667      	mov	r7, ip
 80004cc:	e7d1      	b.n	8000472 <__udivmoddi4+0x256>
 80004ce:	4681      	mov	r9, r0
 80004d0:	e77c      	b.n	80003cc <__udivmoddi4+0x1b0>
 80004d2:	3802      	subs	r0, #2
 80004d4:	442c      	add	r4, r5
 80004d6:	e747      	b.n	8000368 <__udivmoddi4+0x14c>
 80004d8:	f1ac 0c02 	sub.w	ip, ip, #2
 80004dc:	442b      	add	r3, r5
 80004de:	e72f      	b.n	8000340 <__udivmoddi4+0x124>
 80004e0:	4638      	mov	r0, r7
 80004e2:	e708      	b.n	80002f6 <__udivmoddi4+0xda>
 80004e4:	4637      	mov	r7, r6
 80004e6:	e6e9      	b.n	80002bc <__udivmoddi4+0xa0>

080004e8 <__aeabi_idiv0>:
 80004e8:	4770      	bx	lr
 80004ea:	bf00      	nop

080004ec <gpioSetPinSpeed>:


#include "Gpio.h"
#include "Common.h"

void gpioSetPinSpeed(GpioRegs *gpio , int pin , PinSpeed speed){
 80004ec:	b480      	push	{r7}
 80004ee:	b085      	sub	sp, #20
 80004f0:	af00      	add	r7, sp, #0
 80004f2:	60f8      	str	r0, [r7, #12]
 80004f4:	60b9      	str	r1, [r7, #8]
 80004f6:	4613      	mov	r3, r2
 80004f8:	71fb      	strb	r3, [r7, #7]
	gpio->OSPEEDR &= ~(3 << (pin*2 ));
 80004fa:	68fb      	ldr	r3, [r7, #12]
 80004fc:	689b      	ldr	r3, [r3, #8]
 80004fe:	68ba      	ldr	r2, [r7, #8]
 8000500:	0052      	lsls	r2, r2, #1
 8000502:	2103      	movs	r1, #3
 8000504:	fa01 f202 	lsl.w	r2, r1, r2
 8000508:	43d2      	mvns	r2, r2
 800050a:	401a      	ands	r2, r3
 800050c:	68fb      	ldr	r3, [r7, #12]
 800050e:	609a      	str	r2, [r3, #8]
	gpio->OSPEEDR |= speed << (pin *2);
 8000510:	68fb      	ldr	r3, [r7, #12]
 8000512:	689b      	ldr	r3, [r3, #8]
 8000514:	79f9      	ldrb	r1, [r7, #7]
 8000516:	68ba      	ldr	r2, [r7, #8]
 8000518:	0052      	lsls	r2, r2, #1
 800051a:	fa01 f202 	lsl.w	r2, r1, r2
 800051e:	431a      	orrs	r2, r3
 8000520:	68fb      	ldr	r3, [r7, #12]
 8000522:	609a      	str	r2, [r3, #8]
}
 8000524:	bf00      	nop
 8000526:	3714      	adds	r7, #20
 8000528:	46bd      	mov	sp, r7
 800052a:	f85d 7b04 	ldr.w	r7, [sp], #4
 800052e:	4770      	bx	lr

08000530 <gpioSetMode>:

void gpioSetMode(GpioRegs *gpio , int pin , PinMode mode){
 8000530:	b480      	push	{r7}
 8000532:	b085      	sub	sp, #20
 8000534:	af00      	add	r7, sp, #0
 8000536:	60f8      	str	r0, [r7, #12]
 8000538:	60b9      	str	r1, [r7, #8]
 800053a:	4613      	mov	r3, r2
 800053c:	71fb      	strb	r3, [r7, #7]
	gpio->MODER &= ~(3 << (pin*2 ));
 800053e:	68fb      	ldr	r3, [r7, #12]
 8000540:	681b      	ldr	r3, [r3, #0]
 8000542:	68ba      	ldr	r2, [r7, #8]
 8000544:	0052      	lsls	r2, r2, #1
 8000546:	2103      	movs	r1, #3
 8000548:	fa01 f202 	lsl.w	r2, r1, r2
 800054c:	43d2      	mvns	r2, r2
 800054e:	401a      	ands	r2, r3
 8000550:	68fb      	ldr	r3, [r7, #12]
 8000552:	601a      	str	r2, [r3, #0]
	gpio->MODER |= mode << (pin *2);
 8000554:	68fb      	ldr	r3, [r7, #12]
 8000556:	681b      	ldr	r3, [r3, #0]
 8000558:	79f9      	ldrb	r1, [r7, #7]
 800055a:	68ba      	ldr	r2, [r7, #8]
 800055c:	0052      	lsls	r2, r2, #1
 800055e:	fa01 f202 	lsl.w	r2, r1, r2
 8000562:	431a      	orrs	r2, r3
 8000564:	68fb      	ldr	r3, [r7, #12]
 8000566:	601a      	str	r2, [r3, #0]
}
 8000568:	bf00      	nop
 800056a:	3714      	adds	r7, #20
 800056c:	46bd      	mov	sp, r7
 800056e:	f85d 7b04 	ldr.w	r7, [sp], #4
 8000572:	4770      	bx	lr

08000574 <gpioWriteBit>:

void gpioWrite(GpioRegs *gpio , int value){
	gpio->ODR = value;
}

void gpioWriteBit(GpioRegs *gpio , int pin , int value){
 8000574:	b480      	push	{r7}
 8000576:	b085      	sub	sp, #20
 8000578:	af00      	add	r7, sp, #0
 800057a:	60f8      	str	r0, [r7, #12]
 800057c:	60b9      	str	r1, [r7, #8]
 800057e:	607a      	str	r2, [r7, #4]
	gpio->BSRR = 1<< (pin + ((~value & 1) <<4 ));
 8000580:	687b      	ldr	r3, [r7, #4]
 8000582:	f003 0301 	and.w	r3, r3, #1
 8000586:	2b00      	cmp	r3, #0
 8000588:	d101      	bne.n	800058e <gpioWriteBit+0x1a>
 800058a:	2210      	movs	r2, #16
 800058c:	e000      	b.n	8000590 <gpioWriteBit+0x1c>
 800058e:	2200      	movs	r2, #0
 8000590:	68bb      	ldr	r3, [r7, #8]
 8000592:	4413      	add	r3, r2
 8000594:	2201      	movs	r2, #1
 8000596:	fa02 f303 	lsl.w	r3, r2, r3
 800059a:	461a      	mov	r2, r3
 800059c:	68fb      	ldr	r3, [r7, #12]
 800059e:	619a      	str	r2, [r3, #24]
}
 80005a0:	bf00      	nop
 80005a2:	3714      	adds	r7, #20
 80005a4:	46bd      	mov	sp, r7
 80005a6:	f85d 7b04 	ldr.w	r7, [sp], #4
 80005aa:	4770      	bx	lr

080005ac <gpioReadBit>:


int gpioReadBit(GpioRegs *gpio , int pin ){
 80005ac:	b480      	push	{r7}
 80005ae:	b083      	sub	sp, #12
 80005b0:	af00      	add	r7, sp, #0
 80005b2:	6078      	str	r0, [r7, #4]
 80005b4:	6039      	str	r1, [r7, #0]
	return (gpio->IDR >> pin )& 0x1;
 80005b6:	687b      	ldr	r3, [r7, #4]
 80005b8:	691a      	ldr	r2, [r3, #16]
 80005ba:	683b      	ldr	r3, [r7, #0]
 80005bc:	fa22 f303 	lsr.w	r3, r2, r3
 80005c0:	f003 0301 	and.w	r3, r3, #1
}
 80005c4:	4618      	mov	r0, r3
 80005c6:	370c      	adds	r7, #12
 80005c8:	46bd      	mov	sp, r7
 80005ca:	f85d 7b04 	ldr.w	r7, [sp], #4
 80005ce:	4770      	bx	lr

080005d0 <gpioToggleBit>:

void gpioToggleBit(GpioRegs *gpio , int pin ){
 80005d0:	b480      	push	{r7}
 80005d2:	b083      	sub	sp, #12
 80005d4:	af00      	add	r7, sp, #0
 80005d6:	6078      	str	r0, [r7, #4]
 80005d8:	6039      	str	r1, [r7, #0]
	gpio->ODR ^= (1 << pin);
 80005da:	687b      	ldr	r3, [r7, #4]
 80005dc:	695b      	ldr	r3, [r3, #20]
 80005de:	2101      	movs	r1, #1
 80005e0:	683a      	ldr	r2, [r7, #0]
 80005e2:	fa01 f202 	lsl.w	r2, r1, r2
 80005e6:	405a      	eors	r2, r3
 80005e8:	687b      	ldr	r3, [r7, #4]
 80005ea:	615a      	str	r2, [r3, #20]
}
 80005ec:	bf00      	nop
 80005ee:	370c      	adds	r7, #12
 80005f0:	46bd      	mov	sp, r7
 80005f2:	f85d 7b04 	ldr.w	r7, [sp], #4
 80005f6:	4770      	bx	lr

080005f8 <enableGpioG>:
#include "Rcc.h"
#include "BaseAddress.h"
#include "Common.h"
Rcc * rcc = rccReg;

void enableGpioG(){
 80005f8:	b480      	push	{r7}
 80005fa:	af00      	add	r7, sp, #0
	rcc->AHB1RSTR &= ~(1 << 6);
 80005fc:	4b0a      	ldr	r3, [pc, #40]	; (8000628 <enableGpioG+0x30>)
 80005fe:	681b      	ldr	r3, [r3, #0]
 8000600:	691a      	ldr	r2, [r3, #16]
 8000602:	4b09      	ldr	r3, [pc, #36]	; (8000628 <enableGpioG+0x30>)
 8000604:	681b      	ldr	r3, [r3, #0]
 8000606:	f022 0240 	bic.w	r2, r2, #64	; 0x40
 800060a:	611a      	str	r2, [r3, #16]
	rcc->AHB1ENR |= 1 << 6;
 800060c:	4b06      	ldr	r3, [pc, #24]	; (8000628 <enableGpioG+0x30>)
 800060e:	681b      	ldr	r3, [r3, #0]
 8000610:	6b1a      	ldr	r2, [r3, #48]	; 0x30
 8000612:	4b05      	ldr	r3, [pc, #20]	; (8000628 <enableGpioG+0x30>)
 8000614:	681b      	ldr	r3, [r3, #0]
 8000616:	f042 0240 	orr.w	r2, r2, #64	; 0x40
 800061a:	631a      	str	r2, [r3, #48]	; 0x30
}
 800061c:	bf00      	nop
 800061e:	46bd      	mov	sp, r7
 8000620:	f85d 7b04 	ldr.w	r7, [sp], #4
 8000624:	4770      	bx	lr
 8000626:	bf00      	nop
 8000628:	20000000 	.word	0x20000000

0800062c <enableGpioA>:
void disableGpioG(){
	rcc-> AHB1RSTR |= 1 << 6;
	rcc-> AHB1ENR &= ~(1 << 6);
}

void enableGpioA(){
 800062c:	b480      	push	{r7}
 800062e:	af00      	add	r7, sp, #0
	rcc->AHB1RSTR &= ~(1 << 0);
 8000630:	4b0a      	ldr	r3, [pc, #40]	; (800065c <enableGpioA+0x30>)
 8000632:	681b      	ldr	r3, [r3, #0]
 8000634:	691a      	ldr	r2, [r3, #16]
 8000636:	4b09      	ldr	r3, [pc, #36]	; (800065c <enableGpioA+0x30>)
 8000638:	681b      	ldr	r3, [r3, #0]
 800063a:	f022 0201 	bic.w	r2, r2, #1
 800063e:	611a      	str	r2, [r3, #16]
	rcc->AHB1ENR |= 1 << 0;
 8000640:	4b06      	ldr	r3, [pc, #24]	; (800065c <enableGpioA+0x30>)
 8000642:	681b      	ldr	r3, [r3, #0]
 8000644:	6b1a      	ldr	r2, [r3, #48]	; 0x30
 8000646:	4b05      	ldr	r3, [pc, #20]	; (800065c <enableGpioA+0x30>)
 8000648:	681b      	ldr	r3, [r3, #0]
 800064a:	f042 0201 	orr.w	r2, r2, #1
 800064e:	631a      	str	r2, [r3, #48]	; 0x30
}
 8000650:	bf00      	nop
 8000652:	46bd      	mov	sp, r7
 8000654:	f85d 7b04 	ldr.w	r7, [sp], #4
 8000658:	4770      	bx	lr
 800065a:	bf00      	nop
 800065c:	20000000 	.word	0x20000000

08000660 <init_stateMachine>:
#include "Rcc.h"
#include "BaseAddress.h"
#include "StateMachine.h"
#include "Common.h"

void init_stateMachine (StateMachine * states, StateMachine * nextStates, int value){
 8000660:	b480      	push	{r7}
 8000662:	b085      	sub	sp, #20
 8000664:	af00      	add	r7, sp, #0
 8000666:	60f8      	str	r0, [r7, #12]
 8000668:	60b9      	str	r1, [r7, #8]
 800066a:	607a      	str	r2, [r7, #4]
		states->nextStates = nextStates;
 800066c:	68fb      	ldr	r3, [r7, #12]
 800066e:	68ba      	ldr	r2, [r7, #8]
 8000670:	601a      	str	r2, [r3, #0]
		states->value = value;
 8000672:	68fb      	ldr	r3, [r7, #12]
 8000674:	687a      	ldr	r2, [r7, #4]
 8000676:	605a      	str	r2, [r3, #4]

}
 8000678:	bf00      	nop
 800067a:	3714      	adds	r7, #20
 800067c:	46bd      	mov	sp, r7
 800067e:	f85d 7b04 	ldr.w	r7, [sp], #4
 8000682:	4770      	bx	lr

08000684 <nextStateMachine>:
StateMachine * nextStateMachine (StateMachine * states){
 8000684:	b480      	push	{r7}
 8000686:	b083      	sub	sp, #12
 8000688:	af00      	add	r7, sp, #0
 800068a:	6078      	str	r0, [r7, #4]
		return states->nextStates;
 800068c:	687b      	ldr	r3, [r7, #4]
 800068e:	681b      	ldr	r3, [r3, #0]
}
 8000690:	4618      	mov	r0, r3
 8000692:	370c      	adds	r7, #12
 8000694:	46bd      	mov	sp, r7
 8000696:	f85d 7b04 	ldr.w	r7, [sp], #4
 800069a:	4770      	bx	lr

0800069c <main>:
/**
  * @brief  The application entry point.
  * @retval int
  */
int main(void)
{
 800069c:	b580      	push	{r7, lr}
 800069e:	af00      	add	r7, sp, #0
  /* USER CODE END 1 */

  /* MCU Configuration--------------------------------------------------------*/

  /* Reset of all peripherals, Initializes the Flash interface and the Systick. */
  HAL_Init();
 80006a0:	f000 f9d6 	bl	8000a50 <HAL_Init>
  /* USER CODE BEGIN Init */

  /* USER CODE END Init */

  /* Configure the system clock */
  SystemClock_Config();
 80006a4:	f000 f89e 	bl	80007e4 <SystemClock_Config>
  /* USER CODE BEGIN SysInit */

  /* USER CODE END SysInit */

  /* Initialize all configured peripherals */
  MX_GPIO_Init();
 80006a8:	f000 f90c 	bl	80008c4 <MX_GPIO_Init>
  /* USER CODE BEGIN 2 */
  enableGpioG();
 80006ac:	f7ff ffa4 	bl	80005f8 <enableGpioG>
  gpioSetMode(gpioG, PIN_13, GPIO_OUT);
 80006b0:	2201      	movs	r2, #1
 80006b2:	210d      	movs	r1, #13
 80006b4:	4843      	ldr	r0, [pc, #268]	; (80007c4 <main+0x128>)
 80006b6:	f7ff ff3b 	bl	8000530 <gpioSetMode>
  gpioSetPinSpeed(gpioG,PIN_13,HIGH_SPEED);
 80006ba:	2202      	movs	r2, #2
 80006bc:	210d      	movs	r1, #13
 80006be:	4841      	ldr	r0, [pc, #260]	; (80007c4 <main+0x128>)
 80006c0:	f7ff ff14 	bl	80004ec <gpioSetPinSpeed>

  enableGpioA();
 80006c4:	f7ff ffb2 	bl	800062c <enableGpioA>
  gpioSetMode(gpioA, PIN_0, GPIO_IN);
 80006c8:	2200      	movs	r2, #0
 80006ca:	2100      	movs	r1, #0
 80006cc:	483e      	ldr	r0, [pc, #248]	; (80007c8 <main+0x12c>)
 80006ce:	f7ff ff2f 	bl	8000530 <gpioSetMode>
  gpioSetPinSpeed(gpioG,PIN_0,HIGH_SPEED);
 80006d2:	2202      	movs	r2, #2
 80006d4:	2100      	movs	r1, #0
 80006d6:	483b      	ldr	r0, [pc, #236]	; (80007c4 <main+0x128>)
 80006d8:	f7ff ff08 	bl	80004ec <gpioSetPinSpeed>

  init_stateMachine (&state_0, &state_1, S0);
 80006dc:	2200      	movs	r2, #0
 80006de:	493b      	ldr	r1, [pc, #236]	; (80007cc <main+0x130>)
 80006e0:	483b      	ldr	r0, [pc, #236]	; (80007d0 <main+0x134>)
 80006e2:	f7ff ffbd 	bl	8000660 <init_stateMachine>
  init_stateMachine (&state_1, &state_2, S1);
 80006e6:	2201      	movs	r2, #1
 80006e8:	493a      	ldr	r1, [pc, #232]	; (80007d4 <main+0x138>)
 80006ea:	4838      	ldr	r0, [pc, #224]	; (80007cc <main+0x130>)
 80006ec:	f7ff ffb8 	bl	8000660 <init_stateMachine>
  init_stateMachine (&state_2, &state_0, S2);
 80006f0:	2202      	movs	r2, #2
 80006f2:	4937      	ldr	r1, [pc, #220]	; (80007d0 <main+0x134>)
 80006f4:	4837      	ldr	r0, [pc, #220]	; (80007d4 <main+0x138>)
 80006f6:	f7ff ffb3 	bl	8000660 <init_stateMachine>
  currentState = &state_0;
 80006fa:	4b37      	ldr	r3, [pc, #220]	; (80007d8 <main+0x13c>)
 80006fc:	4a34      	ldr	r2, [pc, #208]	; (80007d0 <main+0x134>)
 80006fe:	601a      	str	r2, [r3, #0]
  /* Infinite loop */
  /* USER CODE BEGIN WHILE */

  while (1)
  {
	  if(gpioReadBit(gpioA, 0)){
 8000700:	2100      	movs	r1, #0
 8000702:	4831      	ldr	r0, [pc, #196]	; (80007c8 <main+0x12c>)
 8000704:	f7ff ff52 	bl	80005ac <gpioReadBit>
 8000708:	4603      	mov	r3, r0
 800070a:	2b00      	cmp	r3, #0
 800070c:	d023      	beq.n	8000756 <main+0xba>
		  if(!tickstart)
 800070e:	4b33      	ldr	r3, [pc, #204]	; (80007dc <main+0x140>)
 8000710:	681b      	ldr	r3, [r3, #0]
 8000712:	2b00      	cmp	r3, #0
 8000714:	d104      	bne.n	8000720 <main+0x84>
			  tickstart = HAL_GetTick();
 8000716:	f000 fa01 	bl	8000b1c <HAL_GetTick>
 800071a:	4602      	mov	r2, r0
 800071c:	4b2f      	ldr	r3, [pc, #188]	; (80007dc <main+0x140>)
 800071e:	601a      	str	r2, [r3, #0]
		  if((HAL_GetTick() - tickstart) > 500){
 8000720:	f000 f9fc 	bl	8000b1c <HAL_GetTick>
 8000724:	4602      	mov	r2, r0
 8000726:	4b2d      	ldr	r3, [pc, #180]	; (80007dc <main+0x140>)
 8000728:	681b      	ldr	r3, [r3, #0]
 800072a:	1ad3      	subs	r3, r2, r3
 800072c:	f5b3 7ffa 	cmp.w	r3, #500	; 0x1f4
 8000730:	d911      	bls.n	8000756 <main+0xba>
		  tickstart = 0;
 8000732:	4b2a      	ldr	r3, [pc, #168]	; (80007dc <main+0x140>)
 8000734:	2200      	movs	r2, #0
 8000736:	601a      	str	r2, [r3, #0]
			  if(gpioReadBit(gpioA, 0))
 8000738:	2100      	movs	r1, #0
 800073a:	4823      	ldr	r0, [pc, #140]	; (80007c8 <main+0x12c>)
 800073c:	f7ff ff36 	bl	80005ac <gpioReadBit>
 8000740:	4603      	mov	r3, r0
 8000742:	2b00      	cmp	r3, #0
 8000744:	d007      	beq.n	8000756 <main+0xba>
				  currentState = nextStateMachine(currentState);
 8000746:	4b24      	ldr	r3, [pc, #144]	; (80007d8 <main+0x13c>)
 8000748:	681b      	ldr	r3, [r3, #0]
 800074a:	4618      	mov	r0, r3
 800074c:	f7ff ff9a 	bl	8000684 <nextStateMachine>
 8000750:	4602      	mov	r2, r0
 8000752:	4b21      	ldr	r3, [pc, #132]	; (80007d8 <main+0x13c>)
 8000754:	601a      	str	r2, [r3, #0]
		  }
	  }
	  switch(currentState->value){
 8000756:	4b20      	ldr	r3, [pc, #128]	; (80007d8 <main+0x13c>)
 8000758:	681b      	ldr	r3, [r3, #0]
 800075a:	685b      	ldr	r3, [r3, #4]
 800075c:	2b01      	cmp	r3, #1
 800075e:	d01c      	beq.n	800079a <main+0xfe>
 8000760:	2b02      	cmp	r3, #2
 8000762:	d020      	beq.n	80007a6 <main+0x10a>
 8000764:	2b00      	cmp	r3, #0
 8000766:	d124      	bne.n	80007b2 <main+0x116>
		  case S0:
			  if(!flash_delay)
 8000768:	4b1d      	ldr	r3, [pc, #116]	; (80007e0 <main+0x144>)
 800076a:	681b      	ldr	r3, [r3, #0]
 800076c:	2b00      	cmp	r3, #0
 800076e:	d104      	bne.n	800077a <main+0xde>
				  flash_delay = HAL_GetTick();
 8000770:	f000 f9d4 	bl	8000b1c <HAL_GetTick>
 8000774:	4602      	mov	r2, r0
 8000776:	4b1a      	ldr	r3, [pc, #104]	; (80007e0 <main+0x144>)
 8000778:	601a      	str	r2, [r3, #0]
			  if((HAL_GetTick() - flash_delay) > 100){
 800077a:	f000 f9cf 	bl	8000b1c <HAL_GetTick>
 800077e:	4602      	mov	r2, r0
 8000780:	4b17      	ldr	r3, [pc, #92]	; (80007e0 <main+0x144>)
 8000782:	681b      	ldr	r3, [r3, #0]
 8000784:	1ad3      	subs	r3, r2, r3
 8000786:	2b64      	cmp	r3, #100	; 0x64
 8000788:	d919      	bls.n	80007be <main+0x122>
				  flash_delay = 0;
 800078a:	4b15      	ldr	r3, [pc, #84]	; (80007e0 <main+0x144>)
 800078c:	2200      	movs	r2, #0
 800078e:	601a      	str	r2, [r3, #0]
				  gpioToggleBit(gpioG , PIN_13);
 8000790:	210d      	movs	r1, #13
 8000792:	480c      	ldr	r0, [pc, #48]	; (80007c4 <main+0x128>)
 8000794:	f7ff ff1c 	bl	80005d0 <gpioToggleBit>
			  }
		  break;
 8000798:	e011      	b.n	80007be <main+0x122>
		  case S1:
			  gpioWriteBit(gpioG,PIN_13,0);
 800079a:	2200      	movs	r2, #0
 800079c:	210d      	movs	r1, #13
 800079e:	4809      	ldr	r0, [pc, #36]	; (80007c4 <main+0x128>)
 80007a0:	f7ff fee8 	bl	8000574 <gpioWriteBit>
		  break;
 80007a4:	e00c      	b.n	80007c0 <main+0x124>
		  case S2:
			  gpioWriteBit(gpioG,PIN_13,1);
 80007a6:	2201      	movs	r2, #1
 80007a8:	210d      	movs	r1, #13
 80007aa:	4806      	ldr	r0, [pc, #24]	; (80007c4 <main+0x128>)
 80007ac:	f7ff fee2 	bl	8000574 <gpioWriteBit>
		  break;
 80007b0:	e006      	b.n	80007c0 <main+0x124>
		  default:
			  gpioWriteBit(gpioG,PIN_13,0);
 80007b2:	2200      	movs	r2, #0
 80007b4:	210d      	movs	r1, #13
 80007b6:	4803      	ldr	r0, [pc, #12]	; (80007c4 <main+0x128>)
 80007b8:	f7ff fedc 	bl	8000574 <gpioWriteBit>
		  break;
 80007bc:	e000      	b.n	80007c0 <main+0x124>
		  break;
 80007be:	bf00      	nop
	  if(gpioReadBit(gpioA, 0)){
 80007c0:	e79e      	b.n	8000700 <main+0x64>
 80007c2:	bf00      	nop
 80007c4:	40021800 	.word	0x40021800
 80007c8:	40020000 	.word	0x40020000
 80007cc:	20000038 	.word	0x20000038
 80007d0:	2000002c 	.word	0x2000002c
 80007d4:	2000004c 	.word	0x2000004c
 80007d8:	20000034 	.word	0x20000034
 80007dc:	20000048 	.word	0x20000048
 80007e0:	20000044 	.word	0x20000044

080007e4 <SystemClock_Config>:
/**
  * @brief System Clock Configuration
  * @retval None
  */
void SystemClock_Config(void)
{
 80007e4:	b580      	push	{r7, lr}
 80007e6:	b094      	sub	sp, #80	; 0x50
 80007e8:	af00      	add	r7, sp, #0
  RCC_OscInitTypeDef RCC_OscInitStruct = {0};
 80007ea:	f107 0320 	add.w	r3, r7, #32
 80007ee:	2230      	movs	r2, #48	; 0x30
 80007f0:	2100      	movs	r1, #0
 80007f2:	4618      	mov	r0, r3
 80007f4:	f000 ff26 	bl	8001644 <memset>
  RCC_ClkInitTypeDef RCC_ClkInitStruct = {0};
 80007f8:	f107 030c 	add.w	r3, r7, #12
 80007fc:	2200      	movs	r2, #0
 80007fe:	601a      	str	r2, [r3, #0]
 8000800:	605a      	str	r2, [r3, #4]
 8000802:	609a      	str	r2, [r3, #8]
 8000804:	60da      	str	r2, [r3, #12]
 8000806:	611a      	str	r2, [r3, #16]

  /** Configure the main internal regulator output voltage 
  */
  __HAL_RCC_PWR_CLK_ENABLE();
 8000808:	2300      	movs	r3, #0
 800080a:	60bb      	str	r3, [r7, #8]
 800080c:	4b2b      	ldr	r3, [pc, #172]	; (80008bc <SystemClock_Config+0xd8>)
 800080e:	6c1b      	ldr	r3, [r3, #64]	; 0x40
 8000810:	4a2a      	ldr	r2, [pc, #168]	; (80008bc <SystemClock_Config+0xd8>)
 8000812:	f043 5380 	orr.w	r3, r3, #268435456	; 0x10000000
 8000816:	6413      	str	r3, [r2, #64]	; 0x40
 8000818:	4b28      	ldr	r3, [pc, #160]	; (80008bc <SystemClock_Config+0xd8>)
 800081a:	6c1b      	ldr	r3, [r3, #64]	; 0x40
 800081c:	f003 5380 	and.w	r3, r3, #268435456	; 0x10000000
 8000820:	60bb      	str	r3, [r7, #8]
 8000822:	68bb      	ldr	r3, [r7, #8]
  __HAL_PWR_VOLTAGESCALING_CONFIG(PWR_REGULATOR_VOLTAGE_SCALE1);
 8000824:	2300      	movs	r3, #0
 8000826:	607b      	str	r3, [r7, #4]
 8000828:	4b25      	ldr	r3, [pc, #148]	; (80008c0 <SystemClock_Config+0xdc>)
 800082a:	681b      	ldr	r3, [r3, #0]
 800082c:	4a24      	ldr	r2, [pc, #144]	; (80008c0 <SystemClock_Config+0xdc>)
 800082e:	f443 4340 	orr.w	r3, r3, #49152	; 0xc000
 8000832:	6013      	str	r3, [r2, #0]
 8000834:	4b22      	ldr	r3, [pc, #136]	; (80008c0 <SystemClock_Config+0xdc>)
 8000836:	681b      	ldr	r3, [r3, #0]
 8000838:	f403 4340 	and.w	r3, r3, #49152	; 0xc000
 800083c:	607b      	str	r3, [r7, #4]
 800083e:	687b      	ldr	r3, [r7, #4]
  /** Initializes the CPU, AHB and APB busses clocks 
  */
  RCC_OscInitStruct.OscillatorType = RCC_OSCILLATORTYPE_HSE;
 8000840:	2301      	movs	r3, #1
 8000842:	623b      	str	r3, [r7, #32]
  RCC_OscInitStruct.HSEState = RCC_HSE_ON;
 8000844:	f44f 3380 	mov.w	r3, #65536	; 0x10000
 8000848:	627b      	str	r3, [r7, #36]	; 0x24
  RCC_OscInitStruct.PLL.PLLState = RCC_PLL_ON;
 800084a:	2302      	movs	r3, #2
 800084c:	63bb      	str	r3, [r7, #56]	; 0x38
  RCC_OscInitStruct.PLL.PLLSource = RCC_PLLSOURCE_HSE;
 800084e:	f44f 0380 	mov.w	r3, #4194304	; 0x400000
 8000852:	63fb      	str	r3, [r7, #60]	; 0x3c
  RCC_OscInitStruct.PLL.PLLM = 4;
 8000854:	2304      	movs	r3, #4
 8000856:	643b      	str	r3, [r7, #64]	; 0x40
  RCC_OscInitStruct.PLL.PLLN = 180;
 8000858:	23b4      	movs	r3, #180	; 0xb4
 800085a:	647b      	str	r3, [r7, #68]	; 0x44
  RCC_OscInitStruct.PLL.PLLP = RCC_PLLP_DIV2;
 800085c:	2302      	movs	r3, #2
 800085e:	64bb      	str	r3, [r7, #72]	; 0x48
  RCC_OscInitStruct.PLL.PLLQ = 4;
 8000860:	2304      	movs	r3, #4
 8000862:	64fb      	str	r3, [r7, #76]	; 0x4c
  if (HAL_RCC_OscConfig(&RCC_OscInitStruct) != HAL_OK)
 8000864:	f107 0320 	add.w	r3, r7, #32
 8000868:	4618      	mov	r0, r3
 800086a:	f000 fa99 	bl	8000da0 <HAL_RCC_OscConfig>
 800086e:	4603      	mov	r3, r0
 8000870:	2b00      	cmp	r3, #0
 8000872:	d001      	beq.n	8000878 <SystemClock_Config+0x94>
  {
    Error_Handler();
 8000874:	f000 f84e 	bl	8000914 <Error_Handler>
  }
  /** Activate the Over-Drive mode 
  */
  if (HAL_PWREx_EnableOverDrive() != HAL_OK)
 8000878:	f000 fa42 	bl	8000d00 <HAL_PWREx_EnableOverDrive>
 800087c:	4603      	mov	r3, r0
 800087e:	2b00      	cmp	r3, #0
 8000880:	d001      	beq.n	8000886 <SystemClock_Config+0xa2>
  {
    Error_Handler();
 8000882:	f000 f847 	bl	8000914 <Error_Handler>
  }
  /** Initializes the CPU, AHB and APB busses clocks 
  */
  RCC_ClkInitStruct.ClockType = RCC_CLOCKTYPE_HCLK|RCC_CLOCKTYPE_SYSCLK
 8000886:	230f      	movs	r3, #15
 8000888:	60fb      	str	r3, [r7, #12]
                              |RCC_CLOCKTYPE_PCLK1|RCC_CLOCKTYPE_PCLK2;
  RCC_ClkInitStruct.SYSCLKSource = RCC_SYSCLKSOURCE_PLLCLK;
 800088a:	2302      	movs	r3, #2
 800088c:	613b      	str	r3, [r7, #16]
  RCC_ClkInitStruct.AHBCLKDivider = RCC_SYSCLK_DIV1;
 800088e:	2300      	movs	r3, #0
 8000890:	617b      	str	r3, [r7, #20]
  RCC_ClkInitStruct.APB1CLKDivider = RCC_HCLK_DIV4;
 8000892:	f44f 53a0 	mov.w	r3, #5120	; 0x1400
 8000896:	61bb      	str	r3, [r7, #24]
  RCC_ClkInitStruct.APB2CLKDivider = RCC_HCLK_DIV2;
 8000898:	f44f 5380 	mov.w	r3, #4096	; 0x1000
 800089c:	61fb      	str	r3, [r7, #28]

  if (HAL_RCC_ClockConfig(&RCC_ClkInitStruct, FLASH_LATENCY_5) != HAL_OK)
 800089e:	f107 030c 	add.w	r3, r7, #12
 80008a2:	2105      	movs	r1, #5
 80008a4:	4618      	mov	r0, r3
 80008a6:	f000 fceb 	bl	8001280 <HAL_RCC_ClockConfig>
 80008aa:	4603      	mov	r3, r0
 80008ac:	2b00      	cmp	r3, #0
 80008ae:	d001      	beq.n	80008b4 <SystemClock_Config+0xd0>
  {
    Error_Handler();
 80008b0:	f000 f830 	bl	8000914 <Error_Handler>
  }
}
 80008b4:	bf00      	nop
 80008b6:	3750      	adds	r7, #80	; 0x50
 80008b8:	46bd      	mov	sp, r7
 80008ba:	bd80      	pop	{r7, pc}
 80008bc:	40023800 	.word	0x40023800
 80008c0:	40007000 	.word	0x40007000

080008c4 <MX_GPIO_Init>:
  * @brief GPIO Initialization Function
  * @param None
  * @retval None
  */
static void MX_GPIO_Init(void)
{
 80008c4:	b480      	push	{r7}
 80008c6:	b083      	sub	sp, #12
 80008c8:	af00      	add	r7, sp, #0

  /* GPIO Ports Clock Enable */
  __HAL_RCC_GPIOH_CLK_ENABLE();
 80008ca:	2300      	movs	r3, #0
 80008cc:	607b      	str	r3, [r7, #4]
 80008ce:	4b10      	ldr	r3, [pc, #64]	; (8000910 <MX_GPIO_Init+0x4c>)
 80008d0:	6b1b      	ldr	r3, [r3, #48]	; 0x30
 80008d2:	4a0f      	ldr	r2, [pc, #60]	; (8000910 <MX_GPIO_Init+0x4c>)
 80008d4:	f043 0380 	orr.w	r3, r3, #128	; 0x80
 80008d8:	6313      	str	r3, [r2, #48]	; 0x30
 80008da:	4b0d      	ldr	r3, [pc, #52]	; (8000910 <MX_GPIO_Init+0x4c>)
 80008dc:	6b1b      	ldr	r3, [r3, #48]	; 0x30
 80008de:	f003 0380 	and.w	r3, r3, #128	; 0x80
 80008e2:	607b      	str	r3, [r7, #4]
 80008e4:	687b      	ldr	r3, [r7, #4]
  __HAL_RCC_GPIOA_CLK_ENABLE();
 80008e6:	2300      	movs	r3, #0
 80008e8:	603b      	str	r3, [r7, #0]
 80008ea:	4b09      	ldr	r3, [pc, #36]	; (8000910 <MX_GPIO_Init+0x4c>)
 80008ec:	6b1b      	ldr	r3, [r3, #48]	; 0x30
 80008ee:	4a08      	ldr	r2, [pc, #32]	; (8000910 <MX_GPIO_Init+0x4c>)
 80008f0:	f043 0301 	orr.w	r3, r3, #1
 80008f4:	6313      	str	r3, [r2, #48]	; 0x30
 80008f6:	4b06      	ldr	r3, [pc, #24]	; (8000910 <MX_GPIO_Init+0x4c>)
 80008f8:	6b1b      	ldr	r3, [r3, #48]	; 0x30
 80008fa:	f003 0301 	and.w	r3, r3, #1
 80008fe:	603b      	str	r3, [r7, #0]
 8000900:	683b      	ldr	r3, [r7, #0]

}
 8000902:	bf00      	nop
 8000904:	370c      	adds	r7, #12
 8000906:	46bd      	mov	sp, r7
 8000908:	f85d 7b04 	ldr.w	r7, [sp], #4
 800090c:	4770      	bx	lr
 800090e:	bf00      	nop
 8000910:	40023800 	.word	0x40023800

08000914 <Error_Handler>:
/**
  * @brief  This function is executed in case of error occurrence.
  * @retval None
  */
void Error_Handler(void)
{
 8000914:	b480      	push	{r7}
 8000916:	af00      	add	r7, sp, #0
  /* USER CODE BEGIN Error_Handler_Debug */
  /* User can add his own implementation to report the HAL error return state */

  /* USER CODE END Error_Handler_Debug */
}
 8000918:	bf00      	nop
 800091a:	46bd      	mov	sp, r7
 800091c:	f85d 7b04 	ldr.w	r7, [sp], #4
 8000920:	4770      	bx	lr
	...

08000924 <HAL_MspInit>:
 8000924:	b480      	push	{r7}
 8000926:	b083      	sub	sp, #12
 8000928:	af00      	add	r7, sp, #0
 800092a:	2300      	movs	r3, #0
 800092c:	607b      	str	r3, [r7, #4]
 800092e:	4b10      	ldr	r3, [pc, #64]	; (8000970 <HAL_MspInit+0x4c>)
 8000930:	6c5b      	ldr	r3, [r3, #68]	; 0x44
 8000932:	4a0f      	ldr	r2, [pc, #60]	; (8000970 <HAL_MspInit+0x4c>)
 8000934:	f443 4380 	orr.w	r3, r3, #16384	; 0x4000
 8000938:	6453      	str	r3, [r2, #68]	; 0x44
 800093a:	4b0d      	ldr	r3, [pc, #52]	; (8000970 <HAL_MspInit+0x4c>)
 800093c:	6c5b      	ldr	r3, [r3, #68]	; 0x44
 800093e:	f403 4380 	and.w	r3, r3, #16384	; 0x4000
 8000942:	607b      	str	r3, [r7, #4]
 8000944:	687b      	ldr	r3, [r7, #4]
 8000946:	2300      	movs	r3, #0
 8000948:	603b      	str	r3, [r7, #0]
 800094a:	4b09      	ldr	r3, [pc, #36]	; (8000970 <HAL_MspInit+0x4c>)
 800094c:	6c1b      	ldr	r3, [r3, #64]	; 0x40
 800094e:	4a08      	ldr	r2, [pc, #32]	; (8000970 <HAL_MspInit+0x4c>)
 8000950:	f043 5380 	orr.w	r3, r3, #268435456	; 0x10000000
 8000954:	6413      	str	r3, [r2, #64]	; 0x40
 8000956:	4b06      	ldr	r3, [pc, #24]	; (8000970 <HAL_MspInit+0x4c>)
 8000958:	6c1b      	ldr	r3, [r3, #64]	; 0x40
 800095a:	f003 5380 	and.w	r3, r3, #268435456	; 0x10000000
 800095e:	603b      	str	r3, [r7, #0]
 8000960:	683b      	ldr	r3, [r7, #0]
 8000962:	bf00      	nop
 8000964:	370c      	adds	r7, #12
 8000966:	46bd      	mov	sp, r7
 8000968:	f85d 7b04 	ldr.w	r7, [sp], #4
 800096c:	4770      	bx	lr
 800096e:	bf00      	nop
 8000970:	40023800 	.word	0x40023800

08000974 <NMI_Handler>:
 8000974:	b480      	push	{r7}
 8000976:	af00      	add	r7, sp, #0
 8000978:	bf00      	nop
 800097a:	46bd      	mov	sp, r7
 800097c:	f85d 7b04 	ldr.w	r7, [sp], #4
 8000980:	4770      	bx	lr

08000982 <HardFault_Handler>:
 8000982:	b480      	push	{r7}
 8000984:	af00      	add	r7, sp, #0
 8000986:	e7fe      	b.n	8000986 <HardFault_Handler+0x4>

08000988 <MemManage_Handler>:
 8000988:	b480      	push	{r7}
 800098a:	af00      	add	r7, sp, #0
 800098c:	e7fe      	b.n	800098c <MemManage_Handler+0x4>

0800098e <BusFault_Handler>:
 800098e:	b480      	push	{r7}
 8000990:	af00      	add	r7, sp, #0
 8000992:	e7fe      	b.n	8000992 <BusFault_Handler+0x4>

08000994 <UsageFault_Handler>:
 8000994:	b480      	push	{r7}
 8000996:	af00      	add	r7, sp, #0
 8000998:	e7fe      	b.n	8000998 <UsageFault_Handler+0x4>

0800099a <SVC_Handler>:
 800099a:	b480      	push	{r7}
 800099c:	af00      	add	r7, sp, #0
 800099e:	bf00      	nop
 80009a0:	46bd      	mov	sp, r7
 80009a2:	f85d 7b04 	ldr.w	r7, [sp], #4
 80009a6:	4770      	bx	lr

080009a8 <DebugMon_Handler>:
 80009a8:	b480      	push	{r7}
 80009aa:	af00      	add	r7, sp, #0
 80009ac:	bf00      	nop
 80009ae:	46bd      	mov	sp, r7
 80009b0:	f85d 7b04 	ldr.w	r7, [sp], #4
 80009b4:	4770      	bx	lr

080009b6 <PendSV_Handler>:
 80009b6:	b480      	push	{r7}
 80009b8:	af00      	add	r7, sp, #0
 80009ba:	bf00      	nop
 80009bc:	46bd      	mov	sp, r7
 80009be:	f85d 7b04 	ldr.w	r7, [sp], #4
 80009c2:	4770      	bx	lr

080009c4 <SysTick_Handler>:
 80009c4:	b580      	push	{r7, lr}
 80009c6:	af00      	add	r7, sp, #0
 80009c8:	f000 f894 	bl	8000af4 <HAL_IncTick>
 80009cc:	bf00      	nop
 80009ce:	bd80      	pop	{r7, pc}

080009d0 <SystemInit>:
  *         configuration.
  * @param  None
  * @retval None
  */
void SystemInit(void)
{
 80009d0:	b480      	push	{r7}
 80009d2:	af00      	add	r7, sp, #0
  /* FPU settings ------------------------------------------------------------*/
  #if (__FPU_PRESENT == 1) && (__FPU_USED == 1)
    SCB->CPACR |= ((3UL << 10*2)|(3UL << 11*2));  /* set CP10 and CP11 Full Access */
 80009d4:	4b08      	ldr	r3, [pc, #32]	; (80009f8 <SystemInit+0x28>)
 80009d6:	f8d3 3088 	ldr.w	r3, [r3, #136]	; 0x88
 80009da:	4a07      	ldr	r2, [pc, #28]	; (80009f8 <SystemInit+0x28>)
 80009dc:	f443 0370 	orr.w	r3, r3, #15728640	; 0xf00000
 80009e0:	f8c2 3088 	str.w	r3, [r2, #136]	; 0x88

  /* Configure the Vector Table location add offset address ------------------*/
#ifdef VECT_TAB_SRAM
  SCB->VTOR = SRAM_BASE | VECT_TAB_OFFSET; /* Vector Table Relocation in Internal SRAM */
#else
  SCB->VTOR = FLASH_BASE | VECT_TAB_OFFSET; /* Vector Table Relocation in Internal FLASH */
 80009e4:	4b04      	ldr	r3, [pc, #16]	; (80009f8 <SystemInit+0x28>)
 80009e6:	f04f 6200 	mov.w	r2, #134217728	; 0x8000000
 80009ea:	609a      	str	r2, [r3, #8]
#endif
}
 80009ec:	bf00      	nop
 80009ee:	46bd      	mov	sp, r7
 80009f0:	f85d 7b04 	ldr.w	r7, [sp], #4
 80009f4:	4770      	bx	lr
 80009f6:	bf00      	nop
 80009f8:	e000ed00 	.word	0xe000ed00

080009fc <Reset_Handler>:
 80009fc:	f8df d034 	ldr.w	sp, [pc, #52]	; 8000a34 <LoopFillZerobss+0x14>
 8000a00:	2100      	movs	r1, #0
 8000a02:	e003      	b.n	8000a0c <LoopCopyDataInit>

08000a04 <CopyDataInit>:
 8000a04:	4b0c      	ldr	r3, [pc, #48]	; (8000a38 <LoopFillZerobss+0x18>)
 8000a06:	585b      	ldr	r3, [r3, r1]
 8000a08:	5043      	str	r3, [r0, r1]
 8000a0a:	3104      	adds	r1, #4

08000a0c <LoopCopyDataInit>:
 8000a0c:	480b      	ldr	r0, [pc, #44]	; (8000a3c <LoopFillZerobss+0x1c>)
 8000a0e:	4b0c      	ldr	r3, [pc, #48]	; (8000a40 <LoopFillZerobss+0x20>)
 8000a10:	1842      	adds	r2, r0, r1
 8000a12:	429a      	cmp	r2, r3
 8000a14:	d3f6      	bcc.n	8000a04 <CopyDataInit>
 8000a16:	4a0b      	ldr	r2, [pc, #44]	; (8000a44 <LoopFillZerobss+0x24>)
 8000a18:	e002      	b.n	8000a20 <LoopFillZerobss>

08000a1a <FillZerobss>:
 8000a1a:	2300      	movs	r3, #0
 8000a1c:	f842 3b04 	str.w	r3, [r2], #4

08000a20 <LoopFillZerobss>:
 8000a20:	4b09      	ldr	r3, [pc, #36]	; (8000a48 <LoopFillZerobss+0x28>)
 8000a22:	429a      	cmp	r2, r3
 8000a24:	d3f9      	bcc.n	8000a1a <FillZerobss>
 8000a26:	f7ff ffd3 	bl	80009d0 <SystemInit>
 8000a2a:	f000 fde7 	bl	80015fc <__libc_init_array>
 8000a2e:	f7ff fe35 	bl	800069c <main>
 8000a32:	4770      	bx	lr
 8000a34:	20030000 	.word	0x20030000
 8000a38:	0800168c 	.word	0x0800168c
 8000a3c:	20000000 	.word	0x20000000
 8000a40:	20000010 	.word	0x20000010
 8000a44:	20000010 	.word	0x20000010
 8000a48:	20000058 	.word	0x20000058

08000a4c <ADC_IRQHandler>:
 8000a4c:	e7fe      	b.n	8000a4c <ADC_IRQHandler>
	...

08000a50 <HAL_Init>:
 8000a50:	b580      	push	{r7, lr}
 8000a52:	af00      	add	r7, sp, #0
 8000a54:	4b0e      	ldr	r3, [pc, #56]	; (8000a90 <HAL_Init+0x40>)
 8000a56:	681b      	ldr	r3, [r3, #0]
 8000a58:	4a0d      	ldr	r2, [pc, #52]	; (8000a90 <HAL_Init+0x40>)
 8000a5a:	f443 7300 	orr.w	r3, r3, #512	; 0x200
 8000a5e:	6013      	str	r3, [r2, #0]
 8000a60:	4b0b      	ldr	r3, [pc, #44]	; (8000a90 <HAL_Init+0x40>)
 8000a62:	681b      	ldr	r3, [r3, #0]
 8000a64:	4a0a      	ldr	r2, [pc, #40]	; (8000a90 <HAL_Init+0x40>)
 8000a66:	f443 6380 	orr.w	r3, r3, #1024	; 0x400
 8000a6a:	6013      	str	r3, [r2, #0]
 8000a6c:	4b08      	ldr	r3, [pc, #32]	; (8000a90 <HAL_Init+0x40>)
 8000a6e:	681b      	ldr	r3, [r3, #0]
 8000a70:	4a07      	ldr	r2, [pc, #28]	; (8000a90 <HAL_Init+0x40>)
 8000a72:	f443 7380 	orr.w	r3, r3, #256	; 0x100
 8000a76:	6013      	str	r3, [r2, #0]
 8000a78:	2003      	movs	r0, #3
 8000a7a:	f000 f90d 	bl	8000c98 <HAL_NVIC_SetPriorityGrouping>
 8000a7e:	2000      	movs	r0, #0
 8000a80:	f000 f808 	bl	8000a94 <HAL_InitTick>
 8000a84:	f7ff ff4e 	bl	8000924 <HAL_MspInit>
 8000a88:	2300      	movs	r3, #0
 8000a8a:	4618      	mov	r0, r3
 8000a8c:	bd80      	pop	{r7, pc}
 8000a8e:	bf00      	nop
 8000a90:	40023c00 	.word	0x40023c00

08000a94 <HAL_InitTick>:
 8000a94:	b580      	push	{r7, lr}
 8000a96:	b082      	sub	sp, #8
 8000a98:	af00      	add	r7, sp, #0
 8000a9a:	6078      	str	r0, [r7, #4]
 8000a9c:	4b12      	ldr	r3, [pc, #72]	; (8000ae8 <HAL_InitTick+0x54>)
 8000a9e:	681a      	ldr	r2, [r3, #0]
 8000aa0:	4b12      	ldr	r3, [pc, #72]	; (8000aec <HAL_InitTick+0x58>)
 8000aa2:	781b      	ldrb	r3, [r3, #0]
 8000aa4:	4619      	mov	r1, r3
 8000aa6:	f44f 737a 	mov.w	r3, #1000	; 0x3e8
 8000aaa:	fbb3 f3f1 	udiv	r3, r3, r1
 8000aae:	fbb2 f3f3 	udiv	r3, r2, r3
 8000ab2:	4618      	mov	r0, r3
 8000ab4:	f000 f917 	bl	8000ce6 <HAL_SYSTICK_Config>
 8000ab8:	4603      	mov	r3, r0
 8000aba:	2b00      	cmp	r3, #0
 8000abc:	d001      	beq.n	8000ac2 <HAL_InitTick+0x2e>
 8000abe:	2301      	movs	r3, #1
 8000ac0:	e00e      	b.n	8000ae0 <HAL_InitTick+0x4c>
 8000ac2:	687b      	ldr	r3, [r7, #4]
 8000ac4:	2b0f      	cmp	r3, #15
 8000ac6:	d80a      	bhi.n	8000ade <HAL_InitTick+0x4a>
 8000ac8:	2200      	movs	r2, #0
 8000aca:	6879      	ldr	r1, [r7, #4]
 8000acc:	f04f 30ff 	mov.w	r0, #4294967295
 8000ad0:	f000 f8ed 	bl	8000cae <HAL_NVIC_SetPriority>
 8000ad4:	4a06      	ldr	r2, [pc, #24]	; (8000af0 <HAL_InitTick+0x5c>)
 8000ad6:	687b      	ldr	r3, [r7, #4]
 8000ad8:	6013      	str	r3, [r2, #0]
 8000ada:	2300      	movs	r3, #0
 8000adc:	e000      	b.n	8000ae0 <HAL_InitTick+0x4c>
 8000ade:	2301      	movs	r3, #1
 8000ae0:	4618      	mov	r0, r3
 8000ae2:	3708      	adds	r7, #8
 8000ae4:	46bd      	mov	sp, r7
 8000ae6:	bd80      	pop	{r7, pc}
 8000ae8:	20000004 	.word	0x20000004
 8000aec:	2000000c 	.word	0x2000000c
 8000af0:	20000008 	.word	0x20000008

08000af4 <HAL_IncTick>:
 8000af4:	b480      	push	{r7}
 8000af6:	af00      	add	r7, sp, #0
 8000af8:	4b06      	ldr	r3, [pc, #24]	; (8000b14 <HAL_IncTick+0x20>)
 8000afa:	781b      	ldrb	r3, [r3, #0]
 8000afc:	461a      	mov	r2, r3
 8000afe:	4b06      	ldr	r3, [pc, #24]	; (8000b18 <HAL_IncTick+0x24>)
 8000b00:	681b      	ldr	r3, [r3, #0]
 8000b02:	4413      	add	r3, r2
 8000b04:	4a04      	ldr	r2, [pc, #16]	; (8000b18 <HAL_IncTick+0x24>)
 8000b06:	6013      	str	r3, [r2, #0]
 8000b08:	bf00      	nop
 8000b0a:	46bd      	mov	sp, r7
 8000b0c:	f85d 7b04 	ldr.w	r7, [sp], #4
 8000b10:	4770      	bx	lr
 8000b12:	bf00      	nop
 8000b14:	2000000c 	.word	0x2000000c
 8000b18:	20000054 	.word	0x20000054

08000b1c <HAL_GetTick>:
 8000b1c:	b480      	push	{r7}
 8000b1e:	af00      	add	r7, sp, #0
 8000b20:	4b03      	ldr	r3, [pc, #12]	; (8000b30 <HAL_GetTick+0x14>)
 8000b22:	681b      	ldr	r3, [r3, #0]
 8000b24:	4618      	mov	r0, r3
 8000b26:	46bd      	mov	sp, r7
 8000b28:	f85d 7b04 	ldr.w	r7, [sp], #4
 8000b2c:	4770      	bx	lr
 8000b2e:	bf00      	nop
 8000b30:	20000054 	.word	0x20000054

08000b34 <__NVIC_SetPriorityGrouping>:
 8000b34:	b480      	push	{r7}
 8000b36:	b085      	sub	sp, #20
 8000b38:	af00      	add	r7, sp, #0
 8000b3a:	6078      	str	r0, [r7, #4]
 8000b3c:	687b      	ldr	r3, [r7, #4]
 8000b3e:	f003 0307 	and.w	r3, r3, #7
 8000b42:	60fb      	str	r3, [r7, #12]
 8000b44:	4b0c      	ldr	r3, [pc, #48]	; (8000b78 <__NVIC_SetPriorityGrouping+0x44>)
 8000b46:	68db      	ldr	r3, [r3, #12]
 8000b48:	60bb      	str	r3, [r7, #8]
 8000b4a:	68ba      	ldr	r2, [r7, #8]
 8000b4c:	f64f 03ff 	movw	r3, #63743	; 0xf8ff
 8000b50:	4013      	ands	r3, r2
 8000b52:	60bb      	str	r3, [r7, #8]
 8000b54:	68fb      	ldr	r3, [r7, #12]
 8000b56:	021a      	lsls	r2, r3, #8
 8000b58:	68bb      	ldr	r3, [r7, #8]
 8000b5a:	4313      	orrs	r3, r2
 8000b5c:	f043 63bf 	orr.w	r3, r3, #100139008	; 0x5f80000
 8000b60:	f443 3300 	orr.w	r3, r3, #131072	; 0x20000
 8000b64:	60bb      	str	r3, [r7, #8]
 8000b66:	4a04      	ldr	r2, [pc, #16]	; (8000b78 <__NVIC_SetPriorityGrouping+0x44>)
 8000b68:	68bb      	ldr	r3, [r7, #8]
 8000b6a:	60d3      	str	r3, [r2, #12]
 8000b6c:	bf00      	nop
 8000b6e:	3714      	adds	r7, #20
 8000b70:	46bd      	mov	sp, r7
 8000b72:	f85d 7b04 	ldr.w	r7, [sp], #4
 8000b76:	4770      	bx	lr
 8000b78:	e000ed00 	.word	0xe000ed00

08000b7c <__NVIC_GetPriorityGrouping>:
 8000b7c:	b480      	push	{r7}
 8000b7e:	af00      	add	r7, sp, #0
 8000b80:	4b04      	ldr	r3, [pc, #16]	; (8000b94 <__NVIC_GetPriorityGrouping+0x18>)
 8000b82:	68db      	ldr	r3, [r3, #12]
 8000b84:	0a1b      	lsrs	r3, r3, #8
 8000b86:	f003 0307 	and.w	r3, r3, #7
 8000b8a:	4618      	mov	r0, r3
 8000b8c:	46bd      	mov	sp, r7
 8000b8e:	f85d 7b04 	ldr.w	r7, [sp], #4
 8000b92:	4770      	bx	lr
 8000b94:	e000ed00 	.word	0xe000ed00

08000b98 <__NVIC_SetPriority>:
 8000b98:	b480      	push	{r7}
 8000b9a:	b083      	sub	sp, #12
 8000b9c:	af00      	add	r7, sp, #0
 8000b9e:	4603      	mov	r3, r0
 8000ba0:	6039      	str	r1, [r7, #0]
 8000ba2:	71fb      	strb	r3, [r7, #7]
 8000ba4:	f997 3007 	ldrsb.w	r3, [r7, #7]
 8000ba8:	2b00      	cmp	r3, #0
 8000baa:	db0a      	blt.n	8000bc2 <__NVIC_SetPriority+0x2a>
 8000bac:	683b      	ldr	r3, [r7, #0]
 8000bae:	b2da      	uxtb	r2, r3
 8000bb0:	490c      	ldr	r1, [pc, #48]	; (8000be4 <__NVIC_SetPriority+0x4c>)
 8000bb2:	f997 3007 	ldrsb.w	r3, [r7, #7]
 8000bb6:	0112      	lsls	r2, r2, #4
 8000bb8:	b2d2      	uxtb	r2, r2
 8000bba:	440b      	add	r3, r1
 8000bbc:	f883 2300 	strb.w	r2, [r3, #768]	; 0x300
 8000bc0:	e00a      	b.n	8000bd8 <__NVIC_SetPriority+0x40>
 8000bc2:	683b      	ldr	r3, [r7, #0]
 8000bc4:	b2da      	uxtb	r2, r3
 8000bc6:	4908      	ldr	r1, [pc, #32]	; (8000be8 <__NVIC_SetPriority+0x50>)
 8000bc8:	79fb      	ldrb	r3, [r7, #7]
 8000bca:	f003 030f 	and.w	r3, r3, #15
 8000bce:	3b04      	subs	r3, #4
 8000bd0:	0112      	lsls	r2, r2, #4
 8000bd2:	b2d2      	uxtb	r2, r2
 8000bd4:	440b      	add	r3, r1
 8000bd6:	761a      	strb	r2, [r3, #24]
 8000bd8:	bf00      	nop
 8000bda:	370c      	adds	r7, #12
 8000bdc:	46bd      	mov	sp, r7
 8000bde:	f85d 7b04 	ldr.w	r7, [sp], #4
 8000be2:	4770      	bx	lr
 8000be4:	e000e100 	.word	0xe000e100
 8000be8:	e000ed00 	.word	0xe000ed00

08000bec <NVIC_EncodePriority>:
 8000bec:	b480      	push	{r7}
 8000bee:	b089      	sub	sp, #36	; 0x24
 8000bf0:	af00      	add	r7, sp, #0
 8000bf2:	60f8      	str	r0, [r7, #12]
 8000bf4:	60b9      	str	r1, [r7, #8]
 8000bf6:	607a      	str	r2, [r7, #4]
 8000bf8:	68fb      	ldr	r3, [r7, #12]
 8000bfa:	f003 0307 	and.w	r3, r3, #7
 8000bfe:	61fb      	str	r3, [r7, #28]
 8000c00:	69fb      	ldr	r3, [r7, #28]
 8000c02:	f1c3 0307 	rsb	r3, r3, #7
 8000c06:	2b04      	cmp	r3, #4
 8000c08:	bf28      	it	cs
 8000c0a:	2304      	movcs	r3, #4
 8000c0c:	61bb      	str	r3, [r7, #24]
 8000c0e:	69fb      	ldr	r3, [r7, #28]
 8000c10:	3304      	adds	r3, #4
 8000c12:	2b06      	cmp	r3, #6
 8000c14:	d902      	bls.n	8000c1c <NVIC_EncodePriority+0x30>
 8000c16:	69fb      	ldr	r3, [r7, #28]
 8000c18:	3b03      	subs	r3, #3
 8000c1a:	e000      	b.n	8000c1e <NVIC_EncodePriority+0x32>
 8000c1c:	2300      	movs	r3, #0
 8000c1e:	617b      	str	r3, [r7, #20]
 8000c20:	f04f 32ff 	mov.w	r2, #4294967295
 8000c24:	69bb      	ldr	r3, [r7, #24]
 8000c26:	fa02 f303 	lsl.w	r3, r2, r3
 8000c2a:	43da      	mvns	r2, r3
 8000c2c:	68bb      	ldr	r3, [r7, #8]
 8000c2e:	401a      	ands	r2, r3
 8000c30:	697b      	ldr	r3, [r7, #20]
 8000c32:	409a      	lsls	r2, r3
 8000c34:	f04f 31ff 	mov.w	r1, #4294967295
 8000c38:	697b      	ldr	r3, [r7, #20]
 8000c3a:	fa01 f303 	lsl.w	r3, r1, r3
 8000c3e:	43d9      	mvns	r1, r3
 8000c40:	687b      	ldr	r3, [r7, #4]
 8000c42:	400b      	ands	r3, r1
 8000c44:	4313      	orrs	r3, r2
 8000c46:	4618      	mov	r0, r3
 8000c48:	3724      	adds	r7, #36	; 0x24
 8000c4a:	46bd      	mov	sp, r7
 8000c4c:	f85d 7b04 	ldr.w	r7, [sp], #4
 8000c50:	4770      	bx	lr
	...

08000c54 <SysTick_Config>:
 8000c54:	b580      	push	{r7, lr}
 8000c56:	b082      	sub	sp, #8
 8000c58:	af00      	add	r7, sp, #0
 8000c5a:	6078      	str	r0, [r7, #4]
 8000c5c:	687b      	ldr	r3, [r7, #4]
 8000c5e:	3b01      	subs	r3, #1
 8000c60:	f1b3 7f80 	cmp.w	r3, #16777216	; 0x1000000
 8000c64:	d301      	bcc.n	8000c6a <SysTick_Config+0x16>
 8000c66:	2301      	movs	r3, #1
 8000c68:	e00f      	b.n	8000c8a <SysTick_Config+0x36>
 8000c6a:	4a0a      	ldr	r2, [pc, #40]	; (8000c94 <SysTick_Config+0x40>)
 8000c6c:	687b      	ldr	r3, [r7, #4]
 8000c6e:	3b01      	subs	r3, #1
 8000c70:	6053      	str	r3, [r2, #4]
 8000c72:	210f      	movs	r1, #15
 8000c74:	f04f 30ff 	mov.w	r0, #4294967295
 8000c78:	f7ff ff8e 	bl	8000b98 <__NVIC_SetPriority>
 8000c7c:	4b05      	ldr	r3, [pc, #20]	; (8000c94 <SysTick_Config+0x40>)
 8000c7e:	2200      	movs	r2, #0
 8000c80:	609a      	str	r2, [r3, #8]
 8000c82:	4b04      	ldr	r3, [pc, #16]	; (8000c94 <SysTick_Config+0x40>)
 8000c84:	2207      	movs	r2, #7
 8000c86:	601a      	str	r2, [r3, #0]
 8000c88:	2300      	movs	r3, #0
 8000c8a:	4618      	mov	r0, r3
 8000c8c:	3708      	adds	r7, #8
 8000c8e:	46bd      	mov	sp, r7
 8000c90:	bd80      	pop	{r7, pc}
 8000c92:	bf00      	nop
 8000c94:	e000e010 	.word	0xe000e010

08000c98 <HAL_NVIC_SetPriorityGrouping>:
 8000c98:	b580      	push	{r7, lr}
 8000c9a:	b082      	sub	sp, #8
 8000c9c:	af00      	add	r7, sp, #0
 8000c9e:	6078      	str	r0, [r7, #4]
 8000ca0:	6878      	ldr	r0, [r7, #4]
 8000ca2:	f7ff ff47 	bl	8000b34 <__NVIC_SetPriorityGrouping>
 8000ca6:	bf00      	nop
 8000ca8:	3708      	adds	r7, #8
 8000caa:	46bd      	mov	sp, r7
 8000cac:	bd80      	pop	{r7, pc}

08000cae <HAL_NVIC_SetPriority>:
 8000cae:	b580      	push	{r7, lr}
 8000cb0:	b086      	sub	sp, #24
 8000cb2:	af00      	add	r7, sp, #0
 8000cb4:	4603      	mov	r3, r0
 8000cb6:	60b9      	str	r1, [r7, #8]
 8000cb8:	607a      	str	r2, [r7, #4]
 8000cba:	73fb      	strb	r3, [r7, #15]
 8000cbc:	2300      	movs	r3, #0
 8000cbe:	617b      	str	r3, [r7, #20]
 8000cc0:	f7ff ff5c 	bl	8000b7c <__NVIC_GetPriorityGrouping>
 8000cc4:	6178      	str	r0, [r7, #20]
 8000cc6:	687a      	ldr	r2, [r7, #4]
 8000cc8:	68b9      	ldr	r1, [r7, #8]
 8000cca:	6978      	ldr	r0, [r7, #20]
 8000ccc:	f7ff ff8e 	bl	8000bec <NVIC_EncodePriority>
 8000cd0:	4602      	mov	r2, r0
 8000cd2:	f997 300f 	ldrsb.w	r3, [r7, #15]
 8000cd6:	4611      	mov	r1, r2
 8000cd8:	4618      	mov	r0, r3
 8000cda:	f7ff ff5d 	bl	8000b98 <__NVIC_SetPriority>
 8000cde:	bf00      	nop
 8000ce0:	3718      	adds	r7, #24
 8000ce2:	46bd      	mov	sp, r7
 8000ce4:	bd80      	pop	{r7, pc}

08000ce6 <HAL_SYSTICK_Config>:
 8000ce6:	b580      	push	{r7, lr}
 8000ce8:	b082      	sub	sp, #8
 8000cea:	af00      	add	r7, sp, #0
 8000cec:	6078      	str	r0, [r7, #4]
 8000cee:	6878      	ldr	r0, [r7, #4]
 8000cf0:	f7ff ffb0 	bl	8000c54 <SysTick_Config>
 8000cf4:	4603      	mov	r3, r0
 8000cf6:	4618      	mov	r0, r3
 8000cf8:	3708      	adds	r7, #8
 8000cfa:	46bd      	mov	sp, r7
 8000cfc:	bd80      	pop	{r7, pc}
	...

08000d00 <HAL_PWREx_EnableOverDrive>:
 8000d00:	b580      	push	{r7, lr}
 8000d02:	b082      	sub	sp, #8
 8000d04:	af00      	add	r7, sp, #0
 8000d06:	2300      	movs	r3, #0
 8000d08:	607b      	str	r3, [r7, #4]
 8000d0a:	2300      	movs	r3, #0
 8000d0c:	603b      	str	r3, [r7, #0]
 8000d0e:	4b20      	ldr	r3, [pc, #128]	; (8000d90 <HAL_PWREx_EnableOverDrive+0x90>)
 8000d10:	6c1b      	ldr	r3, [r3, #64]	; 0x40
 8000d12:	4a1f      	ldr	r2, [pc, #124]	; (8000d90 <HAL_PWREx_EnableOverDrive+0x90>)
 8000d14:	f043 5380 	orr.w	r3, r3, #268435456	; 0x10000000
 8000d18:	6413      	str	r3, [r2, #64]	; 0x40
 8000d1a:	4b1d      	ldr	r3, [pc, #116]	; (8000d90 <HAL_PWREx_EnableOverDrive+0x90>)
 8000d1c:	6c1b      	ldr	r3, [r3, #64]	; 0x40
 8000d1e:	f003 5380 	and.w	r3, r3, #268435456	; 0x10000000
 8000d22:	603b      	str	r3, [r7, #0]
 8000d24:	683b      	ldr	r3, [r7, #0]
 8000d26:	4b1b      	ldr	r3, [pc, #108]	; (8000d94 <HAL_PWREx_EnableOverDrive+0x94>)
 8000d28:	2201      	movs	r2, #1
 8000d2a:	601a      	str	r2, [r3, #0]
 8000d2c:	f7ff fef6 	bl	8000b1c <HAL_GetTick>
 8000d30:	6078      	str	r0, [r7, #4]
 8000d32:	e009      	b.n	8000d48 <HAL_PWREx_EnableOverDrive+0x48>
 8000d34:	f7ff fef2 	bl	8000b1c <HAL_GetTick>
 8000d38:	4602      	mov	r2, r0
 8000d3a:	687b      	ldr	r3, [r7, #4]
 8000d3c:	1ad3      	subs	r3, r2, r3
 8000d3e:	f5b3 7f7a 	cmp.w	r3, #1000	; 0x3e8
 8000d42:	d901      	bls.n	8000d48 <HAL_PWREx_EnableOverDrive+0x48>
 8000d44:	2303      	movs	r3, #3
 8000d46:	e01f      	b.n	8000d88 <HAL_PWREx_EnableOverDrive+0x88>
 8000d48:	4b13      	ldr	r3, [pc, #76]	; (8000d98 <HAL_PWREx_EnableOverDrive+0x98>)
 8000d4a:	685b      	ldr	r3, [r3, #4]
 8000d4c:	f403 3380 	and.w	r3, r3, #65536	; 0x10000
 8000d50:	f5b3 3f80 	cmp.w	r3, #65536	; 0x10000
 8000d54:	d1ee      	bne.n	8000d34 <HAL_PWREx_EnableOverDrive+0x34>
 8000d56:	4b11      	ldr	r3, [pc, #68]	; (8000d9c <HAL_PWREx_EnableOverDrive+0x9c>)
 8000d58:	2201      	movs	r2, #1
 8000d5a:	601a      	str	r2, [r3, #0]
 8000d5c:	f7ff fede 	bl	8000b1c <HAL_GetTick>
 8000d60:	6078      	str	r0, [r7, #4]
 8000d62:	e009      	b.n	8000d78 <HAL_PWREx_EnableOverDrive+0x78>
 8000d64:	f7ff feda 	bl	8000b1c <HAL_GetTick>
 8000d68:	4602      	mov	r2, r0
 8000d6a:	687b      	ldr	r3, [r7, #4]
 8000d6c:	1ad3      	subs	r3, r2, r3
 8000d6e:	f5b3 7f7a 	cmp.w	r3, #1000	; 0x3e8
 8000d72:	d901      	bls.n	8000d78 <HAL_PWREx_EnableOverDrive+0x78>
 8000d74:	2303      	movs	r3, #3
 8000d76:	e007      	b.n	8000d88 <HAL_PWREx_EnableOverDrive+0x88>
 8000d78:	4b07      	ldr	r3, [pc, #28]	; (8000d98 <HAL_PWREx_EnableOverDrive+0x98>)
 8000d7a:	685b      	ldr	r3, [r3, #4]
 8000d7c:	f403 3300 	and.w	r3, r3, #131072	; 0x20000
 8000d80:	f5b3 3f00 	cmp.w	r3, #131072	; 0x20000
 8000d84:	d1ee      	bne.n	8000d64 <HAL_PWREx_EnableOverDrive+0x64>
 8000d86:	2300      	movs	r3, #0
 8000d88:	4618      	mov	r0, r3
 8000d8a:	3708      	adds	r7, #8
 8000d8c:	46bd      	mov	sp, r7
 8000d8e:	bd80      	pop	{r7, pc}
 8000d90:	40023800 	.word	0x40023800
 8000d94:	420e0040 	.word	0x420e0040
 8000d98:	40007000 	.word	0x40007000
 8000d9c:	420e0044 	.word	0x420e0044

08000da0 <HAL_RCC_OscConfig>:
 8000da0:	b580      	push	{r7, lr}
 8000da2:	b086      	sub	sp, #24
 8000da4:	af00      	add	r7, sp, #0
 8000da6:	6078      	str	r0, [r7, #4]
 8000da8:	687b      	ldr	r3, [r7, #4]
 8000daa:	2b00      	cmp	r3, #0
 8000dac:	d101      	bne.n	8000db2 <HAL_RCC_OscConfig+0x12>
 8000dae:	2301      	movs	r3, #1
 8000db0:	e25b      	b.n	800126a <HAL_RCC_OscConfig+0x4ca>
 8000db2:	687b      	ldr	r3, [r7, #4]
 8000db4:	681b      	ldr	r3, [r3, #0]
 8000db6:	f003 0301 	and.w	r3, r3, #1
 8000dba:	2b00      	cmp	r3, #0
 8000dbc:	d075      	beq.n	8000eaa <HAL_RCC_OscConfig+0x10a>
 8000dbe:	4ba3      	ldr	r3, [pc, #652]	; (800104c <HAL_RCC_OscConfig+0x2ac>)
 8000dc0:	689b      	ldr	r3, [r3, #8]
 8000dc2:	f003 030c 	and.w	r3, r3, #12
 8000dc6:	2b04      	cmp	r3, #4
 8000dc8:	d00c      	beq.n	8000de4 <HAL_RCC_OscConfig+0x44>
 8000dca:	4ba0      	ldr	r3, [pc, #640]	; (800104c <HAL_RCC_OscConfig+0x2ac>)
 8000dcc:	689b      	ldr	r3, [r3, #8]
 8000dce:	f003 030c 	and.w	r3, r3, #12
 8000dd2:	2b08      	cmp	r3, #8
 8000dd4:	d112      	bne.n	8000dfc <HAL_RCC_OscConfig+0x5c>
 8000dd6:	4b9d      	ldr	r3, [pc, #628]	; (800104c <HAL_RCC_OscConfig+0x2ac>)
 8000dd8:	685b      	ldr	r3, [r3, #4]
 8000dda:	f403 0380 	and.w	r3, r3, #4194304	; 0x400000
 8000dde:	f5b3 0f80 	cmp.w	r3, #4194304	; 0x400000
 8000de2:	d10b      	bne.n	8000dfc <HAL_RCC_OscConfig+0x5c>
 8000de4:	4b99      	ldr	r3, [pc, #612]	; (800104c <HAL_RCC_OscConfig+0x2ac>)
 8000de6:	681b      	ldr	r3, [r3, #0]
 8000de8:	f403 3300 	and.w	r3, r3, #131072	; 0x20000
 8000dec:	2b00      	cmp	r3, #0
 8000dee:	d05b      	beq.n	8000ea8 <HAL_RCC_OscConfig+0x108>
 8000df0:	687b      	ldr	r3, [r7, #4]
 8000df2:	685b      	ldr	r3, [r3, #4]
 8000df4:	2b00      	cmp	r3, #0
 8000df6:	d157      	bne.n	8000ea8 <HAL_RCC_OscConfig+0x108>
 8000df8:	2301      	movs	r3, #1
 8000dfa:	e236      	b.n	800126a <HAL_RCC_OscConfig+0x4ca>
 8000dfc:	687b      	ldr	r3, [r7, #4]
 8000dfe:	685b      	ldr	r3, [r3, #4]
 8000e00:	f5b3 3f80 	cmp.w	r3, #65536	; 0x10000
 8000e04:	d106      	bne.n	8000e14 <HAL_RCC_OscConfig+0x74>
 8000e06:	4b91      	ldr	r3, [pc, #580]	; (800104c <HAL_RCC_OscConfig+0x2ac>)
 8000e08:	681b      	ldr	r3, [r3, #0]
 8000e0a:	4a90      	ldr	r2, [pc, #576]	; (800104c <HAL_RCC_OscConfig+0x2ac>)
 8000e0c:	f443 3380 	orr.w	r3, r3, #65536	; 0x10000
 8000e10:	6013      	str	r3, [r2, #0]
 8000e12:	e01d      	b.n	8000e50 <HAL_RCC_OscConfig+0xb0>
 8000e14:	687b      	ldr	r3, [r7, #4]
 8000e16:	685b      	ldr	r3, [r3, #4]
 8000e18:	f5b3 2fa0 	cmp.w	r3, #327680	; 0x50000
 8000e1c:	d10c      	bne.n	8000e38 <HAL_RCC_OscConfig+0x98>
 8000e1e:	4b8b      	ldr	r3, [pc, #556]	; (800104c <HAL_RCC_OscConfig+0x2ac>)
 8000e20:	681b      	ldr	r3, [r3, #0]
 8000e22:	4a8a      	ldr	r2, [pc, #552]	; (800104c <HAL_RCC_OscConfig+0x2ac>)
 8000e24:	f443 2380 	orr.w	r3, r3, #262144	; 0x40000
 8000e28:	6013      	str	r3, [r2, #0]
 8000e2a:	4b88      	ldr	r3, [pc, #544]	; (800104c <HAL_RCC_OscConfig+0x2ac>)
 8000e2c:	681b      	ldr	r3, [r3, #0]
 8000e2e:	4a87      	ldr	r2, [pc, #540]	; (800104c <HAL_RCC_OscConfig+0x2ac>)
 8000e30:	f443 3380 	orr.w	r3, r3, #65536	; 0x10000
 8000e34:	6013      	str	r3, [r2, #0]
 8000e36:	e00b      	b.n	8000e50 <HAL_RCC_OscConfig+0xb0>
 8000e38:	4b84      	ldr	r3, [pc, #528]	; (800104c <HAL_RCC_OscConfig+0x2ac>)
 8000e3a:	681b      	ldr	r3, [r3, #0]
 8000e3c:	4a83      	ldr	r2, [pc, #524]	; (800104c <HAL_RCC_OscConfig+0x2ac>)
 8000e3e:	f423 3380 	bic.w	r3, r3, #65536	; 0x10000
 8000e42:	6013      	str	r3, [r2, #0]
 8000e44:	4b81      	ldr	r3, [pc, #516]	; (800104c <HAL_RCC_OscConfig+0x2ac>)
 8000e46:	681b      	ldr	r3, [r3, #0]
 8000e48:	4a80      	ldr	r2, [pc, #512]	; (800104c <HAL_RCC_OscConfig+0x2ac>)
 8000e4a:	f423 2380 	bic.w	r3, r3, #262144	; 0x40000
 8000e4e:	6013      	str	r3, [r2, #0]
 8000e50:	687b      	ldr	r3, [r7, #4]
 8000e52:	685b      	ldr	r3, [r3, #4]
 8000e54:	2b00      	cmp	r3, #0
 8000e56:	d013      	beq.n	8000e80 <HAL_RCC_OscConfig+0xe0>
 8000e58:	f7ff fe60 	bl	8000b1c <HAL_GetTick>
 8000e5c:	6138      	str	r0, [r7, #16]
 8000e5e:	e008      	b.n	8000e72 <HAL_RCC_OscConfig+0xd2>
 8000e60:	f7ff fe5c 	bl	8000b1c <HAL_GetTick>
 8000e64:	4602      	mov	r2, r0
 8000e66:	693b      	ldr	r3, [r7, #16]
 8000e68:	1ad3      	subs	r3, r2, r3
 8000e6a:	2b64      	cmp	r3, #100	; 0x64
 8000e6c:	d901      	bls.n	8000e72 <HAL_RCC_OscConfig+0xd2>
 8000e6e:	2303      	movs	r3, #3
 8000e70:	e1fb      	b.n	800126a <HAL_RCC_OscConfig+0x4ca>
 8000e72:	4b76      	ldr	r3, [pc, #472]	; (800104c <HAL_RCC_OscConfig+0x2ac>)
 8000e74:	681b      	ldr	r3, [r3, #0]
 8000e76:	f403 3300 	and.w	r3, r3, #131072	; 0x20000
 8000e7a:	2b00      	cmp	r3, #0
 8000e7c:	d0f0      	beq.n	8000e60 <HAL_RCC_OscConfig+0xc0>
 8000e7e:	e014      	b.n	8000eaa <HAL_RCC_OscConfig+0x10a>
 8000e80:	f7ff fe4c 	bl	8000b1c <HAL_GetTick>
 8000e84:	6138      	str	r0, [r7, #16]
 8000e86:	e008      	b.n	8000e9a <HAL_RCC_OscConfig+0xfa>
 8000e88:	f7ff fe48 	bl	8000b1c <HAL_GetTick>
 8000e8c:	4602      	mov	r2, r0
 8000e8e:	693b      	ldr	r3, [r7, #16]
 8000e90:	1ad3      	subs	r3, r2, r3
 8000e92:	2b64      	cmp	r3, #100	; 0x64
 8000e94:	d901      	bls.n	8000e9a <HAL_RCC_OscConfig+0xfa>
 8000e96:	2303      	movs	r3, #3
 8000e98:	e1e7      	b.n	800126a <HAL_RCC_OscConfig+0x4ca>
 8000e9a:	4b6c      	ldr	r3, [pc, #432]	; (800104c <HAL_RCC_OscConfig+0x2ac>)
 8000e9c:	681b      	ldr	r3, [r3, #0]
 8000e9e:	f403 3300 	and.w	r3, r3, #131072	; 0x20000
 8000ea2:	2b00      	cmp	r3, #0
 8000ea4:	d1f0      	bne.n	8000e88 <HAL_RCC_OscConfig+0xe8>
 8000ea6:	e000      	b.n	8000eaa <HAL_RCC_OscConfig+0x10a>
 8000ea8:	bf00      	nop
 8000eaa:	687b      	ldr	r3, [r7, #4]
 8000eac:	681b      	ldr	r3, [r3, #0]
 8000eae:	f003 0302 	and.w	r3, r3, #2
 8000eb2:	2b00      	cmp	r3, #0
 8000eb4:	d063      	beq.n	8000f7e <HAL_RCC_OscConfig+0x1de>
 8000eb6:	4b65      	ldr	r3, [pc, #404]	; (800104c <HAL_RCC_OscConfig+0x2ac>)
 8000eb8:	689b      	ldr	r3, [r3, #8]
 8000eba:	f003 030c 	and.w	r3, r3, #12
 8000ebe:	2b00      	cmp	r3, #0
 8000ec0:	d00b      	beq.n	8000eda <HAL_RCC_OscConfig+0x13a>
 8000ec2:	4b62      	ldr	r3, [pc, #392]	; (800104c <HAL_RCC_OscConfig+0x2ac>)
 8000ec4:	689b      	ldr	r3, [r3, #8]
 8000ec6:	f003 030c 	and.w	r3, r3, #12
 8000eca:	2b08      	cmp	r3, #8
 8000ecc:	d11c      	bne.n	8000f08 <HAL_RCC_OscConfig+0x168>
 8000ece:	4b5f      	ldr	r3, [pc, #380]	; (800104c <HAL_RCC_OscConfig+0x2ac>)
 8000ed0:	685b      	ldr	r3, [r3, #4]
 8000ed2:	f403 0380 	and.w	r3, r3, #4194304	; 0x400000
 8000ed6:	2b00      	cmp	r3, #0
 8000ed8:	d116      	bne.n	8000f08 <HAL_RCC_OscConfig+0x168>
 8000eda:	4b5c      	ldr	r3, [pc, #368]	; (800104c <HAL_RCC_OscConfig+0x2ac>)
 8000edc:	681b      	ldr	r3, [r3, #0]
 8000ede:	f003 0302 	and.w	r3, r3, #2
 8000ee2:	2b00      	cmp	r3, #0
 8000ee4:	d005      	beq.n	8000ef2 <HAL_RCC_OscConfig+0x152>
 8000ee6:	687b      	ldr	r3, [r7, #4]
 8000ee8:	68db      	ldr	r3, [r3, #12]
 8000eea:	2b01      	cmp	r3, #1
 8000eec:	d001      	beq.n	8000ef2 <HAL_RCC_OscConfig+0x152>
 8000eee:	2301      	movs	r3, #1
 8000ef0:	e1bb      	b.n	800126a <HAL_RCC_OscConfig+0x4ca>
 8000ef2:	4b56      	ldr	r3, [pc, #344]	; (800104c <HAL_RCC_OscConfig+0x2ac>)
 8000ef4:	681b      	ldr	r3, [r3, #0]
 8000ef6:	f023 02f8 	bic.w	r2, r3, #248	; 0xf8
 8000efa:	687b      	ldr	r3, [r7, #4]
 8000efc:	691b      	ldr	r3, [r3, #16]
 8000efe:	00db      	lsls	r3, r3, #3
 8000f00:	4952      	ldr	r1, [pc, #328]	; (800104c <HAL_RCC_OscConfig+0x2ac>)
 8000f02:	4313      	orrs	r3, r2
 8000f04:	600b      	str	r3, [r1, #0]
 8000f06:	e03a      	b.n	8000f7e <HAL_RCC_OscConfig+0x1de>
 8000f08:	687b      	ldr	r3, [r7, #4]
 8000f0a:	68db      	ldr	r3, [r3, #12]
 8000f0c:	2b00      	cmp	r3, #0
 8000f0e:	d020      	beq.n	8000f52 <HAL_RCC_OscConfig+0x1b2>
 8000f10:	4b4f      	ldr	r3, [pc, #316]	; (8001050 <HAL_RCC_OscConfig+0x2b0>)
 8000f12:	2201      	movs	r2, #1
 8000f14:	601a      	str	r2, [r3, #0]
 8000f16:	f7ff fe01 	bl	8000b1c <HAL_GetTick>
 8000f1a:	6138      	str	r0, [r7, #16]
 8000f1c:	e008      	b.n	8000f30 <HAL_RCC_OscConfig+0x190>
 8000f1e:	f7ff fdfd 	bl	8000b1c <HAL_GetTick>
 8000f22:	4602      	mov	r2, r0
 8000f24:	693b      	ldr	r3, [r7, #16]
 8000f26:	1ad3      	subs	r3, r2, r3
 8000f28:	2b02      	cmp	r3, #2
 8000f2a:	d901      	bls.n	8000f30 <HAL_RCC_OscConfig+0x190>
 8000f2c:	2303      	movs	r3, #3
 8000f2e:	e19c      	b.n	800126a <HAL_RCC_OscConfig+0x4ca>
 8000f30:	4b46      	ldr	r3, [pc, #280]	; (800104c <HAL_RCC_OscConfig+0x2ac>)
 8000f32:	681b      	ldr	r3, [r3, #0]
 8000f34:	f003 0302 	and.w	r3, r3, #2
 8000f38:	2b00      	cmp	r3, #0
 8000f3a:	d0f0      	beq.n	8000f1e <HAL_RCC_OscConfig+0x17e>
 8000f3c:	4b43      	ldr	r3, [pc, #268]	; (800104c <HAL_RCC_OscConfig+0x2ac>)
 8000f3e:	681b      	ldr	r3, [r3, #0]
 8000f40:	f023 02f8 	bic.w	r2, r3, #248	; 0xf8
 8000f44:	687b      	ldr	r3, [r7, #4]
 8000f46:	691b      	ldr	r3, [r3, #16]
 8000f48:	00db      	lsls	r3, r3, #3
 8000f4a:	4940      	ldr	r1, [pc, #256]	; (800104c <HAL_RCC_OscConfig+0x2ac>)
 8000f4c:	4313      	orrs	r3, r2
 8000f4e:	600b      	str	r3, [r1, #0]
 8000f50:	e015      	b.n	8000f7e <HAL_RCC_OscConfig+0x1de>
 8000f52:	4b3f      	ldr	r3, [pc, #252]	; (8001050 <HAL_RCC_OscConfig+0x2b0>)
 8000f54:	2200      	movs	r2, #0
 8000f56:	601a      	str	r2, [r3, #0]
 8000f58:	f7ff fde0 	bl	8000b1c <HAL_GetTick>
 8000f5c:	6138      	str	r0, [r7, #16]
 8000f5e:	e008      	b.n	8000f72 <HAL_RCC_OscConfig+0x1d2>
 8000f60:	f7ff fddc 	bl	8000b1c <HAL_GetTick>
 8000f64:	4602      	mov	r2, r0
 8000f66:	693b      	ldr	r3, [r7, #16]
 8000f68:	1ad3      	subs	r3, r2, r3
 8000f6a:	2b02      	cmp	r3, #2
 8000f6c:	d901      	bls.n	8000f72 <HAL_RCC_OscConfig+0x1d2>
 8000f6e:	2303      	movs	r3, #3
 8000f70:	e17b      	b.n	800126a <HAL_RCC_OscConfig+0x4ca>
 8000f72:	4b36      	ldr	r3, [pc, #216]	; (800104c <HAL_RCC_OscConfig+0x2ac>)
 8000f74:	681b      	ldr	r3, [r3, #0]
 8000f76:	f003 0302 	and.w	r3, r3, #2
 8000f7a:	2b00      	cmp	r3, #0
 8000f7c:	d1f0      	bne.n	8000f60 <HAL_RCC_OscConfig+0x1c0>
 8000f7e:	687b      	ldr	r3, [r7, #4]
 8000f80:	681b      	ldr	r3, [r3, #0]
 8000f82:	f003 0308 	and.w	r3, r3, #8
 8000f86:	2b00      	cmp	r3, #0
 8000f88:	d030      	beq.n	8000fec <HAL_RCC_OscConfig+0x24c>
 8000f8a:	687b      	ldr	r3, [r7, #4]
 8000f8c:	695b      	ldr	r3, [r3, #20]
 8000f8e:	2b00      	cmp	r3, #0
 8000f90:	d016      	beq.n	8000fc0 <HAL_RCC_OscConfig+0x220>
 8000f92:	4b30      	ldr	r3, [pc, #192]	; (8001054 <HAL_RCC_OscConfig+0x2b4>)
 8000f94:	2201      	movs	r2, #1
 8000f96:	601a      	str	r2, [r3, #0]
 8000f98:	f7ff fdc0 	bl	8000b1c <HAL_GetTick>
 8000f9c:	6138      	str	r0, [r7, #16]
 8000f9e:	e008      	b.n	8000fb2 <HAL_RCC_OscConfig+0x212>
 8000fa0:	f7ff fdbc 	bl	8000b1c <HAL_GetTick>
 8000fa4:	4602      	mov	r2, r0
 8000fa6:	693b      	ldr	r3, [r7, #16]
 8000fa8:	1ad3      	subs	r3, r2, r3
 8000faa:	2b02      	cmp	r3, #2
 8000fac:	d901      	bls.n	8000fb2 <HAL_RCC_OscConfig+0x212>
 8000fae:	2303      	movs	r3, #3
 8000fb0:	e15b      	b.n	800126a <HAL_RCC_OscConfig+0x4ca>
 8000fb2:	4b26      	ldr	r3, [pc, #152]	; (800104c <HAL_RCC_OscConfig+0x2ac>)
 8000fb4:	6f5b      	ldr	r3, [r3, #116]	; 0x74
 8000fb6:	f003 0302 	and.w	r3, r3, #2
 8000fba:	2b00      	cmp	r3, #0
 8000fbc:	d0f0      	beq.n	8000fa0 <HAL_RCC_OscConfig+0x200>
 8000fbe:	e015      	b.n	8000fec <HAL_RCC_OscConfig+0x24c>
 8000fc0:	4b24      	ldr	r3, [pc, #144]	; (8001054 <HAL_RCC_OscConfig+0x2b4>)
 8000fc2:	2200      	movs	r2, #0
 8000fc4:	601a      	str	r2, [r3, #0]
 8000fc6:	f7ff fda9 	bl	8000b1c <HAL_GetTick>
 8000fca:	6138      	str	r0, [r7, #16]
 8000fcc:	e008      	b.n	8000fe0 <HAL_RCC_OscConfig+0x240>
 8000fce:	f7ff fda5 	bl	8000b1c <HAL_GetTick>
 8000fd2:	4602      	mov	r2, r0
 8000fd4:	693b      	ldr	r3, [r7, #16]
 8000fd6:	1ad3      	subs	r3, r2, r3
 8000fd8:	2b02      	cmp	r3, #2
 8000fda:	d901      	bls.n	8000fe0 <HAL_RCC_OscConfig+0x240>
 8000fdc:	2303      	movs	r3, #3
 8000fde:	e144      	b.n	800126a <HAL_RCC_OscConfig+0x4ca>
 8000fe0:	4b1a      	ldr	r3, [pc, #104]	; (800104c <HAL_RCC_OscConfig+0x2ac>)
 8000fe2:	6f5b      	ldr	r3, [r3, #116]	; 0x74
 8000fe4:	f003 0302 	and.w	r3, r3, #2
 8000fe8:	2b00      	cmp	r3, #0
 8000fea:	d1f0      	bne.n	8000fce <HAL_RCC_OscConfig+0x22e>
 8000fec:	687b      	ldr	r3, [r7, #4]
 8000fee:	681b      	ldr	r3, [r3, #0]
 8000ff0:	f003 0304 	and.w	r3, r3, #4
 8000ff4:	2b00      	cmp	r3, #0
 8000ff6:	f000 80a0 	beq.w	800113a <HAL_RCC_OscConfig+0x39a>
 8000ffa:	2300      	movs	r3, #0
 8000ffc:	75fb      	strb	r3, [r7, #23]
 8000ffe:	4b13      	ldr	r3, [pc, #76]	; (800104c <HAL_RCC_OscConfig+0x2ac>)
 8001000:	6c1b      	ldr	r3, [r3, #64]	; 0x40
 8001002:	f003 5380 	and.w	r3, r3, #268435456	; 0x10000000
 8001006:	2b00      	cmp	r3, #0
 8001008:	d10f      	bne.n	800102a <HAL_RCC_OscConfig+0x28a>
 800100a:	2300      	movs	r3, #0
 800100c:	60bb      	str	r3, [r7, #8]
 800100e:	4b0f      	ldr	r3, [pc, #60]	; (800104c <HAL_RCC_OscConfig+0x2ac>)
 8001010:	6c1b      	ldr	r3, [r3, #64]	; 0x40
 8001012:	4a0e      	ldr	r2, [pc, #56]	; (800104c <HAL_RCC_OscConfig+0x2ac>)
 8001014:	f043 5380 	orr.w	r3, r3, #268435456	; 0x10000000
 8001018:	6413      	str	r3, [r2, #64]	; 0x40
 800101a:	4b0c      	ldr	r3, [pc, #48]	; (800104c <HAL_RCC_OscConfig+0x2ac>)
 800101c:	6c1b      	ldr	r3, [r3, #64]	; 0x40
 800101e:	f003 5380 	and.w	r3, r3, #268435456	; 0x10000000
 8001022:	60bb      	str	r3, [r7, #8]
 8001024:	68bb      	ldr	r3, [r7, #8]
 8001026:	2301      	movs	r3, #1
 8001028:	75fb      	strb	r3, [r7, #23]
 800102a:	4b0b      	ldr	r3, [pc, #44]	; (8001058 <HAL_RCC_OscConfig+0x2b8>)
 800102c:	681b      	ldr	r3, [r3, #0]
 800102e:	f403 7380 	and.w	r3, r3, #256	; 0x100
 8001032:	2b00      	cmp	r3, #0
 8001034:	d121      	bne.n	800107a <HAL_RCC_OscConfig+0x2da>
 8001036:	4b08      	ldr	r3, [pc, #32]	; (8001058 <HAL_RCC_OscConfig+0x2b8>)
 8001038:	681b      	ldr	r3, [r3, #0]
 800103a:	4a07      	ldr	r2, [pc, #28]	; (8001058 <HAL_RCC_OscConfig+0x2b8>)
 800103c:	f443 7380 	orr.w	r3, r3, #256	; 0x100
 8001040:	6013      	str	r3, [r2, #0]
 8001042:	f7ff fd6b 	bl	8000b1c <HAL_GetTick>
 8001046:	6138      	str	r0, [r7, #16]
 8001048:	e011      	b.n	800106e <HAL_RCC_OscConfig+0x2ce>
 800104a:	bf00      	nop
 800104c:	40023800 	.word	0x40023800
 8001050:	42470000 	.word	0x42470000
 8001054:	42470e80 	.word	0x42470e80
 8001058:	40007000 	.word	0x40007000
 800105c:	f7ff fd5e 	bl	8000b1c <HAL_GetTick>
 8001060:	4602      	mov	r2, r0
 8001062:	693b      	ldr	r3, [r7, #16]
 8001064:	1ad3      	subs	r3, r2, r3
 8001066:	2b02      	cmp	r3, #2
 8001068:	d901      	bls.n	800106e <HAL_RCC_OscConfig+0x2ce>
 800106a:	2303      	movs	r3, #3
 800106c:	e0fd      	b.n	800126a <HAL_RCC_OscConfig+0x4ca>
 800106e:	4b81      	ldr	r3, [pc, #516]	; (8001274 <HAL_RCC_OscConfig+0x4d4>)
 8001070:	681b      	ldr	r3, [r3, #0]
 8001072:	f403 7380 	and.w	r3, r3, #256	; 0x100
 8001076:	2b00      	cmp	r3, #0
 8001078:	d0f0      	beq.n	800105c <HAL_RCC_OscConfig+0x2bc>
 800107a:	687b      	ldr	r3, [r7, #4]
 800107c:	689b      	ldr	r3, [r3, #8]
 800107e:	2b01      	cmp	r3, #1
 8001080:	d106      	bne.n	8001090 <HAL_RCC_OscConfig+0x2f0>
 8001082:	4b7d      	ldr	r3, [pc, #500]	; (8001278 <HAL_RCC_OscConfig+0x4d8>)
 8001084:	6f1b      	ldr	r3, [r3, #112]	; 0x70
 8001086:	4a7c      	ldr	r2, [pc, #496]	; (8001278 <HAL_RCC_OscConfig+0x4d8>)
 8001088:	f043 0301 	orr.w	r3, r3, #1
 800108c:	6713      	str	r3, [r2, #112]	; 0x70
 800108e:	e01c      	b.n	80010ca <HAL_RCC_OscConfig+0x32a>
 8001090:	687b      	ldr	r3, [r7, #4]
 8001092:	689b      	ldr	r3, [r3, #8]
 8001094:	2b05      	cmp	r3, #5
 8001096:	d10c      	bne.n	80010b2 <HAL_RCC_OscConfig+0x312>
 8001098:	4b77      	ldr	r3, [pc, #476]	; (8001278 <HAL_RCC_OscConfig+0x4d8>)
 800109a:	6f1b      	ldr	r3, [r3, #112]	; 0x70
 800109c:	4a76      	ldr	r2, [pc, #472]	; (8001278 <HAL_RCC_OscConfig+0x4d8>)
 800109e:	f043 0304 	orr.w	r3, r3, #4
 80010a2:	6713      	str	r3, [r2, #112]	; 0x70
 80010a4:	4b74      	ldr	r3, [pc, #464]	; (8001278 <HAL_RCC_OscConfig+0x4d8>)
 80010a6:	6f1b      	ldr	r3, [r3, #112]	; 0x70
 80010a8:	4a73      	ldr	r2, [pc, #460]	; (8001278 <HAL_RCC_OscConfig+0x4d8>)
 80010aa:	f043 0301 	orr.w	r3, r3, #1
 80010ae:	6713      	str	r3, [r2, #112]	; 0x70
 80010b0:	e00b      	b.n	80010ca <HAL_RCC_OscConfig+0x32a>
 80010b2:	4b71      	ldr	r3, [pc, #452]	; (8001278 <HAL_RCC_OscConfig+0x4d8>)
 80010b4:	6f1b      	ldr	r3, [r3, #112]	; 0x70
 80010b6:	4a70      	ldr	r2, [pc, #448]	; (8001278 <HAL_RCC_OscConfig+0x4d8>)
 80010b8:	f023 0301 	bic.w	r3, r3, #1
 80010bc:	6713      	str	r3, [r2, #112]	; 0x70
 80010be:	4b6e      	ldr	r3, [pc, #440]	; (8001278 <HAL_RCC_OscConfig+0x4d8>)
 80010c0:	6f1b      	ldr	r3, [r3, #112]	; 0x70
 80010c2:	4a6d      	ldr	r2, [pc, #436]	; (8001278 <HAL_RCC_OscConfig+0x4d8>)
 80010c4:	f023 0304 	bic.w	r3, r3, #4
 80010c8:	6713      	str	r3, [r2, #112]	; 0x70
 80010ca:	687b      	ldr	r3, [r7, #4]
 80010cc:	689b      	ldr	r3, [r3, #8]
 80010ce:	2b00      	cmp	r3, #0
 80010d0:	d015      	beq.n	80010fe <HAL_RCC_OscConfig+0x35e>
 80010d2:	f7ff fd23 	bl	8000b1c <HAL_GetTick>
 80010d6:	6138      	str	r0, [r7, #16]
 80010d8:	e00a      	b.n	80010f0 <HAL_RCC_OscConfig+0x350>
 80010da:	f7ff fd1f 	bl	8000b1c <HAL_GetTick>
 80010de:	4602      	mov	r2, r0
 80010e0:	693b      	ldr	r3, [r7, #16]
 80010e2:	1ad3      	subs	r3, r2, r3
 80010e4:	f241 3288 	movw	r2, #5000	; 0x1388
 80010e8:	4293      	cmp	r3, r2
 80010ea:	d901      	bls.n	80010f0 <HAL_RCC_OscConfig+0x350>
 80010ec:	2303      	movs	r3, #3
 80010ee:	e0bc      	b.n	800126a <HAL_RCC_OscConfig+0x4ca>
 80010f0:	4b61      	ldr	r3, [pc, #388]	; (8001278 <HAL_RCC_OscConfig+0x4d8>)
 80010f2:	6f1b      	ldr	r3, [r3, #112]	; 0x70
 80010f4:	f003 0302 	and.w	r3, r3, #2
 80010f8:	2b00      	cmp	r3, #0
 80010fa:	d0ee      	beq.n	80010da <HAL_RCC_OscConfig+0x33a>
 80010fc:	e014      	b.n	8001128 <HAL_RCC_OscConfig+0x388>
 80010fe:	f7ff fd0d 	bl	8000b1c <HAL_GetTick>
 8001102:	6138      	str	r0, [r7, #16]
 8001104:	e00a      	b.n	800111c <HAL_RCC_OscConfig+0x37c>
 8001106:	f7ff fd09 	bl	8000b1c <HAL_GetTick>
 800110a:	4602      	mov	r2, r0
 800110c:	693b      	ldr	r3, [r7, #16]
 800110e:	1ad3      	subs	r3, r2, r3
 8001110:	f241 3288 	movw	r2, #5000	; 0x1388
 8001114:	4293      	cmp	r3, r2
 8001116:	d901      	bls.n	800111c <HAL_RCC_OscConfig+0x37c>
 8001118:	2303      	movs	r3, #3
 800111a:	e0a6      	b.n	800126a <HAL_RCC_OscConfig+0x4ca>
 800111c:	4b56      	ldr	r3, [pc, #344]	; (8001278 <HAL_RCC_OscConfig+0x4d8>)
 800111e:	6f1b      	ldr	r3, [r3, #112]	; 0x70
 8001120:	f003 0302 	and.w	r3, r3, #2
 8001124:	2b00      	cmp	r3, #0
 8001126:	d1ee      	bne.n	8001106 <HAL_RCC_OscConfig+0x366>
 8001128:	7dfb      	ldrb	r3, [r7, #23]
 800112a:	2b01      	cmp	r3, #1
 800112c:	d105      	bne.n	800113a <HAL_RCC_OscConfig+0x39a>
 800112e:	4b52      	ldr	r3, [pc, #328]	; (8001278 <HAL_RCC_OscConfig+0x4d8>)
 8001130:	6c1b      	ldr	r3, [r3, #64]	; 0x40
 8001132:	4a51      	ldr	r2, [pc, #324]	; (8001278 <HAL_RCC_OscConfig+0x4d8>)
 8001134:	f023 5380 	bic.w	r3, r3, #268435456	; 0x10000000
 8001138:	6413      	str	r3, [r2, #64]	; 0x40
 800113a:	687b      	ldr	r3, [r7, #4]
 800113c:	699b      	ldr	r3, [r3, #24]
 800113e:	2b00      	cmp	r3, #0
 8001140:	f000 8092 	beq.w	8001268 <HAL_RCC_OscConfig+0x4c8>
 8001144:	4b4c      	ldr	r3, [pc, #304]	; (8001278 <HAL_RCC_OscConfig+0x4d8>)
 8001146:	689b      	ldr	r3, [r3, #8]
 8001148:	f003 030c 	and.w	r3, r3, #12
 800114c:	2b08      	cmp	r3, #8
 800114e:	d05c      	beq.n	800120a <HAL_RCC_OscConfig+0x46a>
 8001150:	687b      	ldr	r3, [r7, #4]
 8001152:	699b      	ldr	r3, [r3, #24]
 8001154:	2b02      	cmp	r3, #2
 8001156:	d141      	bne.n	80011dc <HAL_RCC_OscConfig+0x43c>
 8001158:	4b48      	ldr	r3, [pc, #288]	; (800127c <HAL_RCC_OscConfig+0x4dc>)
 800115a:	2200      	movs	r2, #0
 800115c:	601a      	str	r2, [r3, #0]
 800115e:	f7ff fcdd 	bl	8000b1c <HAL_GetTick>
 8001162:	6138      	str	r0, [r7, #16]
 8001164:	e008      	b.n	8001178 <HAL_RCC_OscConfig+0x3d8>
 8001166:	f7ff fcd9 	bl	8000b1c <HAL_GetTick>
 800116a:	4602      	mov	r2, r0
 800116c:	693b      	ldr	r3, [r7, #16]
 800116e:	1ad3      	subs	r3, r2, r3
 8001170:	2b02      	cmp	r3, #2
 8001172:	d901      	bls.n	8001178 <HAL_RCC_OscConfig+0x3d8>
 8001174:	2303      	movs	r3, #3
 8001176:	e078      	b.n	800126a <HAL_RCC_OscConfig+0x4ca>
 8001178:	4b3f      	ldr	r3, [pc, #252]	; (8001278 <HAL_RCC_OscConfig+0x4d8>)
 800117a:	681b      	ldr	r3, [r3, #0]
 800117c:	f003 7300 	and.w	r3, r3, #33554432	; 0x2000000
 8001180:	2b00      	cmp	r3, #0
 8001182:	d1f0      	bne.n	8001166 <HAL_RCC_OscConfig+0x3c6>
 8001184:	687b      	ldr	r3, [r7, #4]
 8001186:	69da      	ldr	r2, [r3, #28]
 8001188:	687b      	ldr	r3, [r7, #4]
 800118a:	6a1b      	ldr	r3, [r3, #32]
 800118c:	431a      	orrs	r2, r3
 800118e:	687b      	ldr	r3, [r7, #4]
 8001190:	6a5b      	ldr	r3, [r3, #36]	; 0x24
 8001192:	019b      	lsls	r3, r3, #6
 8001194:	431a      	orrs	r2, r3
 8001196:	687b      	ldr	r3, [r7, #4]
 8001198:	6a9b      	ldr	r3, [r3, #40]	; 0x28
 800119a:	085b      	lsrs	r3, r3, #1
 800119c:	3b01      	subs	r3, #1
 800119e:	041b      	lsls	r3, r3, #16
 80011a0:	431a      	orrs	r2, r3
 80011a2:	687b      	ldr	r3, [r7, #4]
 80011a4:	6adb      	ldr	r3, [r3, #44]	; 0x2c
 80011a6:	061b      	lsls	r3, r3, #24
 80011a8:	4933      	ldr	r1, [pc, #204]	; (8001278 <HAL_RCC_OscConfig+0x4d8>)
 80011aa:	4313      	orrs	r3, r2
 80011ac:	604b      	str	r3, [r1, #4]
 80011ae:	4b33      	ldr	r3, [pc, #204]	; (800127c <HAL_RCC_OscConfig+0x4dc>)
 80011b0:	2201      	movs	r2, #1
 80011b2:	601a      	str	r2, [r3, #0]
 80011b4:	f7ff fcb2 	bl	8000b1c <HAL_GetTick>
 80011b8:	6138      	str	r0, [r7, #16]
 80011ba:	e008      	b.n	80011ce <HAL_RCC_OscConfig+0x42e>
 80011bc:	f7ff fcae 	bl	8000b1c <HAL_GetTick>
 80011c0:	4602      	mov	r2, r0
 80011c2:	693b      	ldr	r3, [r7, #16]
 80011c4:	1ad3      	subs	r3, r2, r3
 80011c6:	2b02      	cmp	r3, #2
 80011c8:	d901      	bls.n	80011ce <HAL_RCC_OscConfig+0x42e>
 80011ca:	2303      	movs	r3, #3
 80011cc:	e04d      	b.n	800126a <HAL_RCC_OscConfig+0x4ca>
 80011ce:	4b2a      	ldr	r3, [pc, #168]	; (8001278 <HAL_RCC_OscConfig+0x4d8>)
 80011d0:	681b      	ldr	r3, [r3, #0]
 80011d2:	f003 7300 	and.w	r3, r3, #33554432	; 0x2000000
 80011d6:	2b00      	cmp	r3, #0
 80011d8:	d0f0      	beq.n	80011bc <HAL_RCC_OscConfig+0x41c>
 80011da:	e045      	b.n	8001268 <HAL_RCC_OscConfig+0x4c8>
 80011dc:	4b27      	ldr	r3, [pc, #156]	; (800127c <HAL_RCC_OscConfig+0x4dc>)
 80011de:	2200      	movs	r2, #0
 80011e0:	601a      	str	r2, [r3, #0]
 80011e2:	f7ff fc9b 	bl	8000b1c <HAL_GetTick>
 80011e6:	6138      	str	r0, [r7, #16]
 80011e8:	e008      	b.n	80011fc <HAL_RCC_OscConfig+0x45c>
 80011ea:	f7ff fc97 	bl	8000b1c <HAL_GetTick>
 80011ee:	4602      	mov	r2, r0
 80011f0:	693b      	ldr	r3, [r7, #16]
 80011f2:	1ad3      	subs	r3, r2, r3
 80011f4:	2b02      	cmp	r3, #2
 80011f6:	d901      	bls.n	80011fc <HAL_RCC_OscConfig+0x45c>
 80011f8:	2303      	movs	r3, #3
 80011fa:	e036      	b.n	800126a <HAL_RCC_OscConfig+0x4ca>
 80011fc:	4b1e      	ldr	r3, [pc, #120]	; (8001278 <HAL_RCC_OscConfig+0x4d8>)
 80011fe:	681b      	ldr	r3, [r3, #0]
 8001200:	f003 7300 	and.w	r3, r3, #33554432	; 0x2000000
 8001204:	2b00      	cmp	r3, #0
 8001206:	d1f0      	bne.n	80011ea <HAL_RCC_OscConfig+0x44a>
 8001208:	e02e      	b.n	8001268 <HAL_RCC_OscConfig+0x4c8>
 800120a:	687b      	ldr	r3, [r7, #4]
 800120c:	699b      	ldr	r3, [r3, #24]
 800120e:	2b01      	cmp	r3, #1
 8001210:	d101      	bne.n	8001216 <HAL_RCC_OscConfig+0x476>
 8001212:	2301      	movs	r3, #1
 8001214:	e029      	b.n	800126a <HAL_RCC_OscConfig+0x4ca>
 8001216:	4b18      	ldr	r3, [pc, #96]	; (8001278 <HAL_RCC_OscConfig+0x4d8>)
 8001218:	685b      	ldr	r3, [r3, #4]
 800121a:	60fb      	str	r3, [r7, #12]
 800121c:	68fb      	ldr	r3, [r7, #12]
 800121e:	f403 0280 	and.w	r2, r3, #4194304	; 0x400000
 8001222:	687b      	ldr	r3, [r7, #4]
 8001224:	69db      	ldr	r3, [r3, #28]
 8001226:	429a      	cmp	r2, r3
 8001228:	d11c      	bne.n	8001264 <HAL_RCC_OscConfig+0x4c4>
 800122a:	68fb      	ldr	r3, [r7, #12]
 800122c:	f003 023f 	and.w	r2, r3, #63	; 0x3f
 8001230:	687b      	ldr	r3, [r7, #4]
 8001232:	6a1b      	ldr	r3, [r3, #32]
 8001234:	429a      	cmp	r2, r3
 8001236:	d115      	bne.n	8001264 <HAL_RCC_OscConfig+0x4c4>
 8001238:	68fa      	ldr	r2, [r7, #12]
 800123a:	f647 73c0 	movw	r3, #32704	; 0x7fc0
 800123e:	4013      	ands	r3, r2
 8001240:	687a      	ldr	r2, [r7, #4]
 8001242:	6a52      	ldr	r2, [r2, #36]	; 0x24
 8001244:	4293      	cmp	r3, r2
 8001246:	d10d      	bne.n	8001264 <HAL_RCC_OscConfig+0x4c4>
 8001248:	68fb      	ldr	r3, [r7, #12]
 800124a:	f403 3240 	and.w	r2, r3, #196608	; 0x30000
 800124e:	687b      	ldr	r3, [r7, #4]
 8001250:	6a9b      	ldr	r3, [r3, #40]	; 0x28
 8001252:	429a      	cmp	r2, r3
 8001254:	d106      	bne.n	8001264 <HAL_RCC_OscConfig+0x4c4>
 8001256:	68fb      	ldr	r3, [r7, #12]
 8001258:	f003 6270 	and.w	r2, r3, #251658240	; 0xf000000
 800125c:	687b      	ldr	r3, [r7, #4]
 800125e:	6adb      	ldr	r3, [r3, #44]	; 0x2c
 8001260:	429a      	cmp	r2, r3
 8001262:	d001      	beq.n	8001268 <HAL_RCC_OscConfig+0x4c8>
 8001264:	2301      	movs	r3, #1
 8001266:	e000      	b.n	800126a <HAL_RCC_OscConfig+0x4ca>
 8001268:	2300      	movs	r3, #0
 800126a:	4618      	mov	r0, r3
 800126c:	3718      	adds	r7, #24
 800126e:	46bd      	mov	sp, r7
 8001270:	bd80      	pop	{r7, pc}
 8001272:	bf00      	nop
 8001274:	40007000 	.word	0x40007000
 8001278:	40023800 	.word	0x40023800
 800127c:	42470060 	.word	0x42470060

08001280 <HAL_RCC_ClockConfig>:
 8001280:	b580      	push	{r7, lr}
 8001282:	b084      	sub	sp, #16
 8001284:	af00      	add	r7, sp, #0
 8001286:	6078      	str	r0, [r7, #4]
 8001288:	6039      	str	r1, [r7, #0]
 800128a:	687b      	ldr	r3, [r7, #4]
 800128c:	2b00      	cmp	r3, #0
 800128e:	d101      	bne.n	8001294 <HAL_RCC_ClockConfig+0x14>
 8001290:	2301      	movs	r3, #1
 8001292:	e0cc      	b.n	800142e <HAL_RCC_ClockConfig+0x1ae>
 8001294:	4b68      	ldr	r3, [pc, #416]	; (8001438 <HAL_RCC_ClockConfig+0x1b8>)
 8001296:	681b      	ldr	r3, [r3, #0]
 8001298:	f003 030f 	and.w	r3, r3, #15
 800129c:	683a      	ldr	r2, [r7, #0]
 800129e:	429a      	cmp	r2, r3
 80012a0:	d90c      	bls.n	80012bc <HAL_RCC_ClockConfig+0x3c>
 80012a2:	4b65      	ldr	r3, [pc, #404]	; (8001438 <HAL_RCC_ClockConfig+0x1b8>)
 80012a4:	683a      	ldr	r2, [r7, #0]
 80012a6:	b2d2      	uxtb	r2, r2
 80012a8:	701a      	strb	r2, [r3, #0]
 80012aa:	4b63      	ldr	r3, [pc, #396]	; (8001438 <HAL_RCC_ClockConfig+0x1b8>)
 80012ac:	681b      	ldr	r3, [r3, #0]
 80012ae:	f003 030f 	and.w	r3, r3, #15
 80012b2:	683a      	ldr	r2, [r7, #0]
 80012b4:	429a      	cmp	r2, r3
 80012b6:	d001      	beq.n	80012bc <HAL_RCC_ClockConfig+0x3c>
 80012b8:	2301      	movs	r3, #1
 80012ba:	e0b8      	b.n	800142e <HAL_RCC_ClockConfig+0x1ae>
 80012bc:	687b      	ldr	r3, [r7, #4]
 80012be:	681b      	ldr	r3, [r3, #0]
 80012c0:	f003 0302 	and.w	r3, r3, #2
 80012c4:	2b00      	cmp	r3, #0
 80012c6:	d020      	beq.n	800130a <HAL_RCC_ClockConfig+0x8a>
 80012c8:	687b      	ldr	r3, [r7, #4]
 80012ca:	681b      	ldr	r3, [r3, #0]
 80012cc:	f003 0304 	and.w	r3, r3, #4
 80012d0:	2b00      	cmp	r3, #0
 80012d2:	d005      	beq.n	80012e0 <HAL_RCC_ClockConfig+0x60>
 80012d4:	4b59      	ldr	r3, [pc, #356]	; (800143c <HAL_RCC_ClockConfig+0x1bc>)
 80012d6:	689b      	ldr	r3, [r3, #8]
 80012d8:	4a58      	ldr	r2, [pc, #352]	; (800143c <HAL_RCC_ClockConfig+0x1bc>)
 80012da:	f443 53e0 	orr.w	r3, r3, #7168	; 0x1c00
 80012de:	6093      	str	r3, [r2, #8]
 80012e0:	687b      	ldr	r3, [r7, #4]
 80012e2:	681b      	ldr	r3, [r3, #0]
 80012e4:	f003 0308 	and.w	r3, r3, #8
 80012e8:	2b00      	cmp	r3, #0
 80012ea:	d005      	beq.n	80012f8 <HAL_RCC_ClockConfig+0x78>
 80012ec:	4b53      	ldr	r3, [pc, #332]	; (800143c <HAL_RCC_ClockConfig+0x1bc>)
 80012ee:	689b      	ldr	r3, [r3, #8]
 80012f0:	4a52      	ldr	r2, [pc, #328]	; (800143c <HAL_RCC_ClockConfig+0x1bc>)
 80012f2:	f443 4360 	orr.w	r3, r3, #57344	; 0xe000
 80012f6:	6093      	str	r3, [r2, #8]
 80012f8:	4b50      	ldr	r3, [pc, #320]	; (800143c <HAL_RCC_ClockConfig+0x1bc>)
 80012fa:	689b      	ldr	r3, [r3, #8]
 80012fc:	f023 02f0 	bic.w	r2, r3, #240	; 0xf0
 8001300:	687b      	ldr	r3, [r7, #4]
 8001302:	689b      	ldr	r3, [r3, #8]
 8001304:	494d      	ldr	r1, [pc, #308]	; (800143c <HAL_RCC_ClockConfig+0x1bc>)
 8001306:	4313      	orrs	r3, r2
 8001308:	608b      	str	r3, [r1, #8]
 800130a:	687b      	ldr	r3, [r7, #4]
 800130c:	681b      	ldr	r3, [r3, #0]
 800130e:	f003 0301 	and.w	r3, r3, #1
 8001312:	2b00      	cmp	r3, #0
 8001314:	d044      	beq.n	80013a0 <HAL_RCC_ClockConfig+0x120>
 8001316:	687b      	ldr	r3, [r7, #4]
 8001318:	685b      	ldr	r3, [r3, #4]
 800131a:	2b01      	cmp	r3, #1
 800131c:	d107      	bne.n	800132e <HAL_RCC_ClockConfig+0xae>
 800131e:	4b47      	ldr	r3, [pc, #284]	; (800143c <HAL_RCC_ClockConfig+0x1bc>)
 8001320:	681b      	ldr	r3, [r3, #0]
 8001322:	f403 3300 	and.w	r3, r3, #131072	; 0x20000
 8001326:	2b00      	cmp	r3, #0
 8001328:	d119      	bne.n	800135e <HAL_RCC_ClockConfig+0xde>
 800132a:	2301      	movs	r3, #1
 800132c:	e07f      	b.n	800142e <HAL_RCC_ClockConfig+0x1ae>
 800132e:	687b      	ldr	r3, [r7, #4]
 8001330:	685b      	ldr	r3, [r3, #4]
 8001332:	2b02      	cmp	r3, #2
 8001334:	d003      	beq.n	800133e <HAL_RCC_ClockConfig+0xbe>
 8001336:	687b      	ldr	r3, [r7, #4]
 8001338:	685b      	ldr	r3, [r3, #4]
 800133a:	2b03      	cmp	r3, #3
 800133c:	d107      	bne.n	800134e <HAL_RCC_ClockConfig+0xce>
 800133e:	4b3f      	ldr	r3, [pc, #252]	; (800143c <HAL_RCC_ClockConfig+0x1bc>)
 8001340:	681b      	ldr	r3, [r3, #0]
 8001342:	f003 7300 	and.w	r3, r3, #33554432	; 0x2000000
 8001346:	2b00      	cmp	r3, #0
 8001348:	d109      	bne.n	800135e <HAL_RCC_ClockConfig+0xde>
 800134a:	2301      	movs	r3, #1
 800134c:	e06f      	b.n	800142e <HAL_RCC_ClockConfig+0x1ae>
 800134e:	4b3b      	ldr	r3, [pc, #236]	; (800143c <HAL_RCC_ClockConfig+0x1bc>)
 8001350:	681b      	ldr	r3, [r3, #0]
 8001352:	f003 0302 	and.w	r3, r3, #2
 8001356:	2b00      	cmp	r3, #0
 8001358:	d101      	bne.n	800135e <HAL_RCC_ClockConfig+0xde>
 800135a:	2301      	movs	r3, #1
 800135c:	e067      	b.n	800142e <HAL_RCC_ClockConfig+0x1ae>
 800135e:	4b37      	ldr	r3, [pc, #220]	; (800143c <HAL_RCC_ClockConfig+0x1bc>)
 8001360:	689b      	ldr	r3, [r3, #8]
 8001362:	f023 0203 	bic.w	r2, r3, #3
 8001366:	687b      	ldr	r3, [r7, #4]
 8001368:	685b      	ldr	r3, [r3, #4]
 800136a:	4934      	ldr	r1, [pc, #208]	; (800143c <HAL_RCC_ClockConfig+0x1bc>)
 800136c:	4313      	orrs	r3, r2
 800136e:	608b      	str	r3, [r1, #8]
 8001370:	f7ff fbd4 	bl	8000b1c <HAL_GetTick>
 8001374:	60f8      	str	r0, [r7, #12]
 8001376:	e00a      	b.n	800138e <HAL_RCC_ClockConfig+0x10e>
 8001378:	f7ff fbd0 	bl	8000b1c <HAL_GetTick>
 800137c:	4602      	mov	r2, r0
 800137e:	68fb      	ldr	r3, [r7, #12]
 8001380:	1ad3      	subs	r3, r2, r3
 8001382:	f241 3288 	movw	r2, #5000	; 0x1388
 8001386:	4293      	cmp	r3, r2
 8001388:	d901      	bls.n	800138e <HAL_RCC_ClockConfig+0x10e>
 800138a:	2303      	movs	r3, #3
 800138c:	e04f      	b.n	800142e <HAL_RCC_ClockConfig+0x1ae>
 800138e:	4b2b      	ldr	r3, [pc, #172]	; (800143c <HAL_RCC_ClockConfig+0x1bc>)
 8001390:	689b      	ldr	r3, [r3, #8]
 8001392:	f003 020c 	and.w	r2, r3, #12
 8001396:	687b      	ldr	r3, [r7, #4]
 8001398:	685b      	ldr	r3, [r3, #4]
 800139a:	009b      	lsls	r3, r3, #2
 800139c:	429a      	cmp	r2, r3
 800139e:	d1eb      	bne.n	8001378 <HAL_RCC_ClockConfig+0xf8>
 80013a0:	4b25      	ldr	r3, [pc, #148]	; (8001438 <HAL_RCC_ClockConfig+0x1b8>)
 80013a2:	681b      	ldr	r3, [r3, #0]
 80013a4:	f003 030f 	and.w	r3, r3, #15
 80013a8:	683a      	ldr	r2, [r7, #0]
 80013aa:	429a      	cmp	r2, r3
 80013ac:	d20c      	bcs.n	80013c8 <HAL_RCC_ClockConfig+0x148>
 80013ae:	4b22      	ldr	r3, [pc, #136]	; (8001438 <HAL_RCC_ClockConfig+0x1b8>)
 80013b0:	683a      	ldr	r2, [r7, #0]
 80013b2:	b2d2      	uxtb	r2, r2
 80013b4:	701a      	strb	r2, [r3, #0]
 80013b6:	4b20      	ldr	r3, [pc, #128]	; (8001438 <HAL_RCC_ClockConfig+0x1b8>)
 80013b8:	681b      	ldr	r3, [r3, #0]
 80013ba:	f003 030f 	and.w	r3, r3, #15
 80013be:	683a      	ldr	r2, [r7, #0]
 80013c0:	429a      	cmp	r2, r3
 80013c2:	d001      	beq.n	80013c8 <HAL_RCC_ClockConfig+0x148>
 80013c4:	2301      	movs	r3, #1
 80013c6:	e032      	b.n	800142e <HAL_RCC_ClockConfig+0x1ae>
 80013c8:	687b      	ldr	r3, [r7, #4]
 80013ca:	681b      	ldr	r3, [r3, #0]
 80013cc:	f003 0304 	and.w	r3, r3, #4
 80013d0:	2b00      	cmp	r3, #0
 80013d2:	d008      	beq.n	80013e6 <HAL_RCC_ClockConfig+0x166>
 80013d4:	4b19      	ldr	r3, [pc, #100]	; (800143c <HAL_RCC_ClockConfig+0x1bc>)
 80013d6:	689b      	ldr	r3, [r3, #8]
 80013d8:	f423 52e0 	bic.w	r2, r3, #7168	; 0x1c00
 80013dc:	687b      	ldr	r3, [r7, #4]
 80013de:	68db      	ldr	r3, [r3, #12]
 80013e0:	4916      	ldr	r1, [pc, #88]	; (800143c <HAL_RCC_ClockConfig+0x1bc>)
 80013e2:	4313      	orrs	r3, r2
 80013e4:	608b      	str	r3, [r1, #8]
 80013e6:	687b      	ldr	r3, [r7, #4]
 80013e8:	681b      	ldr	r3, [r3, #0]
 80013ea:	f003 0308 	and.w	r3, r3, #8
 80013ee:	2b00      	cmp	r3, #0
 80013f0:	d009      	beq.n	8001406 <HAL_RCC_ClockConfig+0x186>
 80013f2:	4b12      	ldr	r3, [pc, #72]	; (800143c <HAL_RCC_ClockConfig+0x1bc>)
 80013f4:	689b      	ldr	r3, [r3, #8]
 80013f6:	f423 4260 	bic.w	r2, r3, #57344	; 0xe000
 80013fa:	687b      	ldr	r3, [r7, #4]
 80013fc:	691b      	ldr	r3, [r3, #16]
 80013fe:	00db      	lsls	r3, r3, #3
 8001400:	490e      	ldr	r1, [pc, #56]	; (800143c <HAL_RCC_ClockConfig+0x1bc>)
 8001402:	4313      	orrs	r3, r2
 8001404:	608b      	str	r3, [r1, #8]
 8001406:	f000 f821 	bl	800144c <HAL_RCC_GetSysClockFreq>
 800140a:	4601      	mov	r1, r0
 800140c:	4b0b      	ldr	r3, [pc, #44]	; (800143c <HAL_RCC_ClockConfig+0x1bc>)
 800140e:	689b      	ldr	r3, [r3, #8]
 8001410:	091b      	lsrs	r3, r3, #4
 8001412:	f003 030f 	and.w	r3, r3, #15
 8001416:	4a0a      	ldr	r2, [pc, #40]	; (8001440 <HAL_RCC_ClockConfig+0x1c0>)
 8001418:	5cd3      	ldrb	r3, [r2, r3]
 800141a:	fa21 f303 	lsr.w	r3, r1, r3
 800141e:	4a09      	ldr	r2, [pc, #36]	; (8001444 <HAL_RCC_ClockConfig+0x1c4>)
 8001420:	6013      	str	r3, [r2, #0]
 8001422:	4b09      	ldr	r3, [pc, #36]	; (8001448 <HAL_RCC_ClockConfig+0x1c8>)
 8001424:	681b      	ldr	r3, [r3, #0]
 8001426:	4618      	mov	r0, r3
 8001428:	f7ff fb34 	bl	8000a94 <HAL_InitTick>
 800142c:	2300      	movs	r3, #0
 800142e:	4618      	mov	r0, r3
 8001430:	3710      	adds	r7, #16
 8001432:	46bd      	mov	sp, r7
 8001434:	bd80      	pop	{r7, pc}
 8001436:	bf00      	nop
 8001438:	40023c00 	.word	0x40023c00
 800143c:	40023800 	.word	0x40023800
 8001440:	0800166c 	.word	0x0800166c
 8001444:	20000004 	.word	0x20000004
 8001448:	20000008 	.word	0x20000008

0800144c <HAL_RCC_GetSysClockFreq>:
 800144c:	b5f0      	push	{r4, r5, r6, r7, lr}
 800144e:	b085      	sub	sp, #20
 8001450:	af00      	add	r7, sp, #0
 8001452:	2300      	movs	r3, #0
 8001454:	607b      	str	r3, [r7, #4]
 8001456:	2300      	movs	r3, #0
 8001458:	60fb      	str	r3, [r7, #12]
 800145a:	2300      	movs	r3, #0
 800145c:	603b      	str	r3, [r7, #0]
 800145e:	2300      	movs	r3, #0
 8001460:	60bb      	str	r3, [r7, #8]
 8001462:	4b63      	ldr	r3, [pc, #396]	; (80015f0 <HAL_RCC_GetSysClockFreq+0x1a4>)
 8001464:	689b      	ldr	r3, [r3, #8]
 8001466:	f003 030c 	and.w	r3, r3, #12
 800146a:	2b04      	cmp	r3, #4
 800146c:	d007      	beq.n	800147e <HAL_RCC_GetSysClockFreq+0x32>
 800146e:	2b08      	cmp	r3, #8
 8001470:	d008      	beq.n	8001484 <HAL_RCC_GetSysClockFreq+0x38>
 8001472:	2b00      	cmp	r3, #0
 8001474:	f040 80b4 	bne.w	80015e0 <HAL_RCC_GetSysClockFreq+0x194>
 8001478:	4b5e      	ldr	r3, [pc, #376]	; (80015f4 <HAL_RCC_GetSysClockFreq+0x1a8>)
 800147a:	60bb      	str	r3, [r7, #8]
 800147c:	e0b3      	b.n	80015e6 <HAL_RCC_GetSysClockFreq+0x19a>
 800147e:	4b5e      	ldr	r3, [pc, #376]	; (80015f8 <HAL_RCC_GetSysClockFreq+0x1ac>)
 8001480:	60bb      	str	r3, [r7, #8]
 8001482:	e0b0      	b.n	80015e6 <HAL_RCC_GetSysClockFreq+0x19a>
 8001484:	4b5a      	ldr	r3, [pc, #360]	; (80015f0 <HAL_RCC_GetSysClockFreq+0x1a4>)
 8001486:	685b      	ldr	r3, [r3, #4]
 8001488:	f003 033f 	and.w	r3, r3, #63	; 0x3f
 800148c:	607b      	str	r3, [r7, #4]
 800148e:	4b58      	ldr	r3, [pc, #352]	; (80015f0 <HAL_RCC_GetSysClockFreq+0x1a4>)
 8001490:	685b      	ldr	r3, [r3, #4]
 8001492:	f403 0380 	and.w	r3, r3, #4194304	; 0x400000
 8001496:	2b00      	cmp	r3, #0
 8001498:	d04a      	beq.n	8001530 <HAL_RCC_GetSysClockFreq+0xe4>
 800149a:	4b55      	ldr	r3, [pc, #340]	; (80015f0 <HAL_RCC_GetSysClockFreq+0x1a4>)
 800149c:	685b      	ldr	r3, [r3, #4]
 800149e:	099b      	lsrs	r3, r3, #6
 80014a0:	f04f 0400 	mov.w	r4, #0
 80014a4:	f240 11ff 	movw	r1, #511	; 0x1ff
 80014a8:	f04f 0200 	mov.w	r2, #0
 80014ac:	ea03 0501 	and.w	r5, r3, r1
 80014b0:	ea04 0602 	and.w	r6, r4, r2
 80014b4:	4629      	mov	r1, r5
 80014b6:	4632      	mov	r2, r6
 80014b8:	f04f 0300 	mov.w	r3, #0
 80014bc:	f04f 0400 	mov.w	r4, #0
 80014c0:	0154      	lsls	r4, r2, #5
 80014c2:	ea44 64d1 	orr.w	r4, r4, r1, lsr #27
 80014c6:	014b      	lsls	r3, r1, #5
 80014c8:	4619      	mov	r1, r3
 80014ca:	4622      	mov	r2, r4
 80014cc:	1b49      	subs	r1, r1, r5
 80014ce:	eb62 0206 	sbc.w	r2, r2, r6
 80014d2:	f04f 0300 	mov.w	r3, #0
 80014d6:	f04f 0400 	mov.w	r4, #0
 80014da:	0194      	lsls	r4, r2, #6
 80014dc:	ea44 6491 	orr.w	r4, r4, r1, lsr #26
 80014e0:	018b      	lsls	r3, r1, #6
 80014e2:	1a5b      	subs	r3, r3, r1
 80014e4:	eb64 0402 	sbc.w	r4, r4, r2
 80014e8:	f04f 0100 	mov.w	r1, #0
 80014ec:	f04f 0200 	mov.w	r2, #0
 80014f0:	00e2      	lsls	r2, r4, #3
 80014f2:	ea42 7253 	orr.w	r2, r2, r3, lsr #29
 80014f6:	00d9      	lsls	r1, r3, #3
 80014f8:	460b      	mov	r3, r1
 80014fa:	4614      	mov	r4, r2
 80014fc:	195b      	adds	r3, r3, r5
 80014fe:	eb44 0406 	adc.w	r4, r4, r6
 8001502:	f04f 0100 	mov.w	r1, #0
 8001506:	f04f 0200 	mov.w	r2, #0
 800150a:	0262      	lsls	r2, r4, #9
 800150c:	ea42 52d3 	orr.w	r2, r2, r3, lsr #23
 8001510:	0259      	lsls	r1, r3, #9
 8001512:	460b      	mov	r3, r1
 8001514:	4614      	mov	r4, r2
 8001516:	4618      	mov	r0, r3
 8001518:	4621      	mov	r1, r4
 800151a:	687b      	ldr	r3, [r7, #4]
 800151c:	f04f 0400 	mov.w	r4, #0
 8001520:	461a      	mov	r2, r3
 8001522:	4623      	mov	r3, r4
 8001524:	f7fe fe62 	bl	80001ec <__aeabi_uldivmod>
 8001528:	4603      	mov	r3, r0
 800152a:	460c      	mov	r4, r1
 800152c:	60fb      	str	r3, [r7, #12]
 800152e:	e049      	b.n	80015c4 <HAL_RCC_GetSysClockFreq+0x178>
 8001530:	4b2f      	ldr	r3, [pc, #188]	; (80015f0 <HAL_RCC_GetSysClockFreq+0x1a4>)
 8001532:	685b      	ldr	r3, [r3, #4]
 8001534:	099b      	lsrs	r3, r3, #6
 8001536:	f04f 0400 	mov.w	r4, #0
 800153a:	f240 11ff 	movw	r1, #511	; 0x1ff
 800153e:	f04f 0200 	mov.w	r2, #0
 8001542:	ea03 0501 	and.w	r5, r3, r1
 8001546:	ea04 0602 	and.w	r6, r4, r2
 800154a:	4629      	mov	r1, r5
 800154c:	4632      	mov	r2, r6
 800154e:	f04f 0300 	mov.w	r3, #0
 8001552:	f04f 0400 	mov.w	r4, #0
 8001556:	0154      	lsls	r4, r2, #5
 8001558:	ea44 64d1 	orr.w	r4, r4, r1, lsr #27
 800155c:	014b      	lsls	r3, r1, #5
 800155e:	4619      	mov	r1, r3
 8001560:	4622      	mov	r2, r4
 8001562:	1b49      	subs	r1, r1, r5
 8001564:	eb62 0206 	sbc.w	r2, r2, r6
 8001568:	f04f 0300 	mov.w	r3, #0
 800156c:	f04f 0400 	mov.w	r4, #0
 8001570:	0194      	lsls	r4, r2, #6
 8001572:	ea44 6491 	orr.w	r4, r4, r1, lsr #26
 8001576:	018b      	lsls	r3, r1, #6
 8001578:	1a5b      	subs	r3, r3, r1
 800157a:	eb64 0402 	sbc.w	r4, r4, r2
 800157e:	f04f 0100 	mov.w	r1, #0
 8001582:	f04f 0200 	mov.w	r2, #0
 8001586:	00e2      	lsls	r2, r4, #3
 8001588:	ea42 7253 	orr.w	r2, r2, r3, lsr #29
 800158c:	00d9      	lsls	r1, r3, #3
 800158e:	460b      	mov	r3, r1
 8001590:	4614      	mov	r4, r2
 8001592:	195b      	adds	r3, r3, r5
 8001594:	eb44 0406 	adc.w	r4, r4, r6
 8001598:	f04f 0100 	mov.w	r1, #0
 800159c:	f04f 0200 	mov.w	r2, #0
 80015a0:	02a2      	lsls	r2, r4, #10
 80015a2:	ea42 5293 	orr.w	r2, r2, r3, lsr #22
 80015a6:	0299      	lsls	r1, r3, #10
 80015a8:	460b      	mov	r3, r1
 80015aa:	4614      	mov	r4, r2
 80015ac:	4618      	mov	r0, r3
 80015ae:	4621      	mov	r1, r4
 80015b0:	687b      	ldr	r3, [r7, #4]
 80015b2:	f04f 0400 	mov.w	r4, #0
 80015b6:	461a      	mov	r2, r3
 80015b8:	4623      	mov	r3, r4
 80015ba:	f7fe fe17 	bl	80001ec <__aeabi_uldivmod>
 80015be:	4603      	mov	r3, r0
 80015c0:	460c      	mov	r4, r1
 80015c2:	60fb      	str	r3, [r7, #12]
 80015c4:	4b0a      	ldr	r3, [pc, #40]	; (80015f0 <HAL_RCC_GetSysClockFreq+0x1a4>)
 80015c6:	685b      	ldr	r3, [r3, #4]
 80015c8:	0c1b      	lsrs	r3, r3, #16
 80015ca:	f003 0303 	and.w	r3, r3, #3
 80015ce:	3301      	adds	r3, #1
 80015d0:	005b      	lsls	r3, r3, #1
 80015d2:	603b      	str	r3, [r7, #0]
 80015d4:	68fa      	ldr	r2, [r7, #12]
 80015d6:	683b      	ldr	r3, [r7, #0]
 80015d8:	fbb2 f3f3 	udiv	r3, r2, r3
 80015dc:	60bb      	str	r3, [r7, #8]
 80015de:	e002      	b.n	80015e6 <HAL_RCC_GetSysClockFreq+0x19a>
 80015e0:	4b04      	ldr	r3, [pc, #16]	; (80015f4 <HAL_RCC_GetSysClockFreq+0x1a8>)
 80015e2:	60bb      	str	r3, [r7, #8]
 80015e4:	bf00      	nop
 80015e6:	68bb      	ldr	r3, [r7, #8]
 80015e8:	4618      	mov	r0, r3
 80015ea:	3714      	adds	r7, #20
 80015ec:	46bd      	mov	sp, r7
 80015ee:	bdf0      	pop	{r4, r5, r6, r7, pc}
 80015f0:	40023800 	.word	0x40023800
 80015f4:	00f42400 	.word	0x00f42400
 80015f8:	007a1200 	.word	0x007a1200

080015fc <__libc_init_array>:
 80015fc:	b570      	push	{r4, r5, r6, lr}
 80015fe:	4e0d      	ldr	r6, [pc, #52]	; (8001634 <__libc_init_array+0x38>)
 8001600:	4c0d      	ldr	r4, [pc, #52]	; (8001638 <__libc_init_array+0x3c>)
 8001602:	1ba4      	subs	r4, r4, r6
 8001604:	10a4      	asrs	r4, r4, #2
 8001606:	2500      	movs	r5, #0
 8001608:	42a5      	cmp	r5, r4
 800160a:	d109      	bne.n	8001620 <__libc_init_array+0x24>
 800160c:	4e0b      	ldr	r6, [pc, #44]	; (800163c <__libc_init_array+0x40>)
 800160e:	4c0c      	ldr	r4, [pc, #48]	; (8001640 <__libc_init_array+0x44>)
 8001610:	f000 f820 	bl	8001654 <_init>
 8001614:	1ba4      	subs	r4, r4, r6
 8001616:	10a4      	asrs	r4, r4, #2
 8001618:	2500      	movs	r5, #0
 800161a:	42a5      	cmp	r5, r4
 800161c:	d105      	bne.n	800162a <__libc_init_array+0x2e>
 800161e:	bd70      	pop	{r4, r5, r6, pc}
 8001620:	f856 3025 	ldr.w	r3, [r6, r5, lsl #2]
 8001624:	4798      	blx	r3
 8001626:	3501      	adds	r5, #1
 8001628:	e7ee      	b.n	8001608 <__libc_init_array+0xc>
 800162a:	f856 3025 	ldr.w	r3, [r6, r5, lsl #2]
 800162e:	4798      	blx	r3
 8001630:	3501      	adds	r5, #1
 8001632:	e7f2      	b.n	800161a <__libc_init_array+0x1e>
 8001634:	08001684 	.word	0x08001684
 8001638:	08001684 	.word	0x08001684
 800163c:	08001684 	.word	0x08001684
 8001640:	08001688 	.word	0x08001688

08001644 <memset>:
 8001644:	4402      	add	r2, r0
 8001646:	4603      	mov	r3, r0
 8001648:	4293      	cmp	r3, r2
 800164a:	d100      	bne.n	800164e <memset+0xa>
 800164c:	4770      	bx	lr
 800164e:	f803 1b01 	strb.w	r1, [r3], #1
 8001652:	e7f9      	b.n	8001648 <memset+0x4>

08001654 <_init>:
 8001654:	b5f8      	push	{r3, r4, r5, r6, r7, lr}
 8001656:	bf00      	nop
 8001658:	bcf8      	pop	{r3, r4, r5, r6, r7}
 800165a:	bc08      	pop	{r3}
 800165c:	469e      	mov	lr, r3
 800165e:	4770      	bx	lr

08001660 <_fini>:
 8001660:	b5f8      	push	{r3, r4, r5, r6, r7, lr}
 8001662:	bf00      	nop
 8001664:	bcf8      	pop	{r3, r4, r5, r6, r7}
 8001666:	bc08      	pop	{r3}
 8001668:	469e      	mov	lr, r3
 800166a:	4770      	bx	lr
